
Lock_Box.elf:     file format elf32-avr

Sections:
Idx Name          Size      VMA       LMA       File off  Algn
  0 .data         00000082  00800100  00000b98  00000c2c  2**0
                  CONTENTS, ALLOC, LOAD, DATA
  1 .text         00000b98  00000000  00000000  00000094  2**1
                  CONTENTS, ALLOC, LOAD, READONLY, CODE
  2 .bss          0000002c  00800182  00800182  00000cae  2**0
                  ALLOC
  3 .stab         00000840  00000000  00000000  00000cb0  2**2
                  CONTENTS, READONLY, DEBUGGING
  4 .stabstr      0000014b  00000000  00000000  000014f0  2**0
                  CONTENTS, READONLY, DEBUGGING
  5 .debug_aranges 00000080  00000000  00000000  00001640  2**3
                  CONTENTS, READONLY, DEBUGGING
  6 .debug_info   000010a1  00000000  00000000  000016c0  2**0
                  CONTENTS, READONLY, DEBUGGING
  7 .debug_abbrev 0000029b  00000000  00000000  00002761  2**0
                  CONTENTS, READONLY, DEBUGGING
  8 .debug_line   000006ea  00000000  00000000  000029fc  2**0
                  CONTENTS, READONLY, DEBUGGING
  9 .debug_frame  0000032c  00000000  00000000  000030e8  2**2
                  CONTENTS, READONLY, DEBUGGING
 10 .debug_str    000003b3  00000000  00000000  00003414  2**0
                  CONTENTS, READONLY, DEBUGGING
 11 .debug_loc    00000a5c  00000000  00000000  000037c7  2**0
                  CONTENTS, READONLY, DEBUGGING
 12 .debug_ranges 00000018  00000000  00000000  00004223  2**0
                  CONTENTS, READONLY, DEBUGGING

Disassembly of section .text:

00000000 <__vectors>:
   0:	19 c0       	rjmp	.+50     	; 0x34 <__ctors_end>
   2:	33 c0       	rjmp	.+102    	; 0x6a <__bad_interrupt>
   4:	32 c0       	rjmp	.+100    	; 0x6a <__bad_interrupt>
   6:	da c2       	rjmp	.+1460   	; 0x5bc <__vector_3>
   8:	30 c0       	rjmp	.+96     	; 0x6a <__bad_interrupt>
   a:	2f c0       	rjmp	.+94     	; 0x6a <__bad_interrupt>
   c:	2e c0       	rjmp	.+92     	; 0x6a <__bad_interrupt>
   e:	2d c0       	rjmp	.+90     	; 0x6a <__bad_interrupt>
  10:	2c c0       	rjmp	.+88     	; 0x6a <__bad_interrupt>
  12:	2b c0       	rjmp	.+86     	; 0x6a <__bad_interrupt>
  14:	2a c0       	rjmp	.+84     	; 0x6a <__bad_interrupt>
  16:	5d c3       	rjmp	.+1722   	; 0x6d2 <__vector_11>
  18:	28 c0       	rjmp	.+80     	; 0x6a <__bad_interrupt>
  1a:	27 c0       	rjmp	.+78     	; 0x6a <__bad_interrupt>
  1c:	26 c0       	rjmp	.+76     	; 0x6a <__bad_interrupt>
  1e:	25 c0       	rjmp	.+74     	; 0x6a <__bad_interrupt>
  20:	24 c0       	rjmp	.+72     	; 0x6a <__bad_interrupt>
  22:	23 c0       	rjmp	.+70     	; 0x6a <__bad_interrupt>
  24:	22 c0       	rjmp	.+68     	; 0x6a <__bad_interrupt>
  26:	21 c0       	rjmp	.+66     	; 0x6a <__bad_interrupt>
  28:	20 c0       	rjmp	.+64     	; 0x6a <__bad_interrupt>
  2a:	1f c0       	rjmp	.+62     	; 0x6a <__bad_interrupt>
  2c:	1e c0       	rjmp	.+60     	; 0x6a <__bad_interrupt>
  2e:	1d c0       	rjmp	.+58     	; 0x6a <__bad_interrupt>
  30:	1c c0       	rjmp	.+56     	; 0x6a <__bad_interrupt>
  32:	1b c0       	rjmp	.+54     	; 0x6a <__bad_interrupt>

00000034 <__ctors_end>:
  34:	11 24       	eor	r1, r1
  36:	1f be       	out	0x3f, r1	; 63
  38:	cf ef       	ldi	r28, 0xFF	; 255
  3a:	d2 e0       	ldi	r29, 0x02	; 2
  3c:	de bf       	out	0x3e, r29	; 62
  3e:	cd bf       	out	0x3d, r28	; 61

00000040 <__do_copy_data>:
  40:	11 e0       	ldi	r17, 0x01	; 1
  42:	a0 e0       	ldi	r26, 0x00	; 0
  44:	b1 e0       	ldi	r27, 0x01	; 1
  46:	e8 e9       	ldi	r30, 0x98	; 152
  48:	fb e0       	ldi	r31, 0x0B	; 11
  4a:	02 c0       	rjmp	.+4      	; 0x50 <__do_copy_data+0x10>
  4c:	05 90       	lpm	r0, Z+
  4e:	0d 92       	st	X+, r0
  50:	a2 38       	cpi	r26, 0x82	; 130
  52:	b1 07       	cpc	r27, r17
  54:	d9 f7       	brne	.-10     	; 0x4c <__do_copy_data+0xc>

00000056 <__do_clear_bss>:
  56:	11 e0       	ldi	r17, 0x01	; 1
  58:	a2 e8       	ldi	r26, 0x82	; 130
  5a:	b1 e0       	ldi	r27, 0x01	; 1
  5c:	01 c0       	rjmp	.+2      	; 0x60 <.do_clear_bss_start>

0000005e <.do_clear_bss_loop>:
  5e:	1d 92       	st	X+, r1

00000060 <.do_clear_bss_start>:
  60:	ae 3a       	cpi	r26, 0xAE	; 174
  62:	b1 07       	cpc	r27, r17
  64:	e1 f7       	brne	.-8      	; 0x5e <.do_clear_bss_loop>
  66:	8a d3       	rcall	.+1812   	; 0x77c <main>
  68:	95 c5       	rjmp	.+2858   	; 0xb94 <_exit>

0000006a <__bad_interrupt>:
  6a:	ca cf       	rjmp	.-108    	; 0x0 <__vectors>

0000006c <resetTimer>:
	OCR1A = TIMEOUT;
	resetTimer();
}

void resetTimer(void){
	TCNT1 = 0x0000;							// reset 16-bit counter to 0
  6c:	10 92 85 00 	sts	0x0085, r1
  70:	10 92 84 00 	sts	0x0084, r1
}
  74:	08 95       	ret

00000076 <pulseElatch>:
	}
}

// Pulses Enable pin to latch in an instruction
void pulseElatch(void){	
	LCD_PORT_1 |= 1 << E;		// Setting Enable high
  76:	44 9a       	sbi	0x08, 4	; 8
	#else
		//round up by default
		__ticks_dc = (uint32_t)(ceil(fabs(__tmp)));
	#endif

	__builtin_avr_delay_cycles(__ticks_dc);
  78:	89 ef       	ldi	r24, 0xF9	; 249
  7a:	90 e0       	ldi	r25, 0x00	; 0
  7c:	01 97       	sbiw	r24, 0x01	; 1
  7e:	f1 f7       	brne	.-4      	; 0x7c <pulseElatch+0x6>
  80:	00 c0       	rjmp	.+0      	; 0x82 <pulseElatch+0xc>
  82:	00 00       	nop
	_delay_ms(1);				// Delaying 1 ms
	LCD_PORT_1 &= ~(1 << E);	// Clearing Enable 
  84:	44 98       	cbi	0x08, 4	; 8
}
  86:	08 95       	ret

00000088 <writeLCDdata>:

// Writes nibbles on data lines 
void writeLCDdata(int data_byte){
  88:	0f 93       	push	r16
  8a:	1f 93       	push	r17
  8c:	cf 93       	push	r28
  8e:	df 93       	push	r29
	int uppernibble = (data_byte & 0xF0) >> 4;	// Defining uppernibble to variable
  90:	8c 01       	movw	r16, r24
  92:	00 7f       	andi	r16, 0xF0	; 240
  94:	10 70       	andi	r17, 0x00	; 0
  96:	15 95       	asr	r17
  98:	07 95       	ror	r16
  9a:	15 95       	asr	r17
  9c:	07 95       	ror	r16
  9e:	15 95       	asr	r17
  a0:	07 95       	ror	r16
  a2:	15 95       	asr	r17
  a4:	07 95       	ror	r16
	int lowernibble = data_byte & 0x0F;			// Defining lowernibble to variable
  a6:	ec 01       	movw	r28, r24
  a8:	cf 70       	andi	r28, 0x0F	; 15
  aa:	d0 70       	andi	r29, 0x00	; 0
	LCD_PORT_1 &= ~0x0F;						// Clearing nibble on LCD
  ac:	88 b1       	in	r24, 0x08	; 8
  ae:	80 7f       	andi	r24, 0xF0	; 240
  b0:	88 b9       	out	0x08, r24	; 8
	LCD_PORT_1 |= uppernibble;					// Sending uppernibble
  b2:	88 b1       	in	r24, 0x08	; 8
  b4:	80 2b       	or	r24, r16
  b6:	88 b9       	out	0x08, r24	; 8
	pulseElatch();								// Latching in upper nibble
  b8:	de df       	rcall	.-68     	; 0x76 <pulseElatch>
	LCD_PORT_1 &= ~(uppernibble);				// Clearing uppernibble
  ba:	88 b1       	in	r24, 0x08	; 8
  bc:	00 95       	com	r16
  be:	08 23       	and	r16, r24
  c0:	08 b9       	out	0x08, r16	; 8
	LCD_PORT_1 |= lowernibble;					// Sending lowernibble
  c2:	88 b1       	in	r24, 0x08	; 8
  c4:	8c 2b       	or	r24, r28
  c6:	88 b9       	out	0x08, r24	; 8
	pulseElatch();								// Latching in lowernibble
  c8:	d6 df       	rcall	.-84     	; 0x76 <pulseElatch>
  ca:	89 ef       	ldi	r24, 0xF9	; 249
  cc:	90 e0       	ldi	r25, 0x00	; 0
  ce:	01 97       	sbiw	r24, 0x01	; 1
  d0:	f1 f7       	brne	.-4      	; 0xce <writeLCDdata+0x46>
  d2:	00 c0       	rjmp	.+0      	; 0xd4 <writeLCDdata+0x4c>
  d4:	00 00       	nop
	_delay_ms(1);								// Delaying to ensure instruction is executed
	LCD_PORT_1 &= ~(lowernibble);				// Clearing lower nibble
  d6:	88 b1       	in	r24, 0x08	; 8
  d8:	c0 95       	com	r28
  da:	c8 23       	and	r28, r24
  dc:	c8 b9       	out	0x08, r28	; 8
}
  de:	df 91       	pop	r29
  e0:	cf 91       	pop	r28
  e2:	1f 91       	pop	r17
  e4:	0f 91       	pop	r16
  e6:	08 95       	ret

000000e8 <cursorPosition>:
	LCD_PORT_2 &= ~(1 << R_W);		// Masking or clearing pin PB0 to be low for write operation
	writeLCDdata(character);		// Sending the character on the data lines
}

// Places the cursor to the home of the specified line
void cursorPosition(int line){
  e8:	cf 93       	push	r28
  ea:	df 93       	push	r29
  ec:	ec 01       	movw	r28, r24
	int i = 1;
	
	LCD_DDR_1 = 0x3F;				// Making LCD PORTC pins outputs
  ee:	8f e3       	ldi	r24, 0x3F	; 63
  f0:	87 b9       	out	0x07, r24	; 7
	LCD_PORT_1 &= ~(1 << RS);		// Clearing RS to send command
  f2:	45 98       	cbi	0x08, 5	; 8
	LCD_DDR_2 |= (1 << R_W);		// Making pin PB1 an output
  f4:	50 9a       	sbi	0x0a, 0	; 10
	LCD_PORT_2 &= ~(1 << R_W);		// Masking or clearing pin PB0 to be low for write operation
  f6:	58 98       	cbi	0x0b, 0	; 11
	
	writeLCDdata(0x0C);				// Turning the cursor OFF
  f8:	8c e0       	ldi	r24, 0x0C	; 12
  fa:	90 e0       	ldi	r25, 0x00	; 0
  fc:	c5 df       	rcall	.-118    	; 0x88 <writeLCDdata>
	
	if (line == 2)					// Move cursor to line 2
  fe:	c2 30       	cpi	r28, 0x02	; 2
 100:	d1 05       	cpc	r29, r1
 102:	59 f4       	brne	.+22     	; 0x11a <cursorPosition+0x32>
	{
		writeLCDdata(0x2);			// Sending the cursor home
 104:	82 e0       	ldi	r24, 0x02	; 2
 106:	90 e0       	ldi	r25, 0x00	; 0
 108:	bf df       	rcall	.-130    	; 0x88 <writeLCDdata>
 10a:	c8 e2       	ldi	r28, 0x28	; 40
 10c:	d0 e0       	ldi	r29, 0x00	; 0
		for(i=1;i<16+25;i++){		// Loop cursor move to the right instruction
		writeLCDdata(0x14);
 10e:	84 e1       	ldi	r24, 0x14	; 20
 110:	90 e0       	ldi	r25, 0x00	; 0
 112:	ba df       	rcall	.-140    	; 0x88 <writeLCDdata>
 114:	21 97       	sbiw	r28, 0x01	; 1
	writeLCDdata(0x0C);				// Turning the cursor OFF
	
	if (line == 2)					// Move cursor to line 2
	{
		writeLCDdata(0x2);			// Sending the cursor home
		for(i=1;i<16+25;i++){		// Loop cursor move to the right instruction
 116:	d9 f7       	brne	.-10     	; 0x10e <cursorPosition+0x26>
 118:	03 c0       	rjmp	.+6      	; 0x120 <cursorPosition+0x38>
		writeLCDdata(0x14);
		}
	}
	else
	writeLCDdata(0x2);			// Sending cursor home
 11a:	82 e0       	ldi	r24, 0x02	; 2
 11c:	90 e0       	ldi	r25, 0x00	; 0
 11e:	b4 df       	rcall	.-152    	; 0x88 <writeLCDdata>

	writeLCDdata(0x0F);				// Turning on the cursor ON
 120:	8f e0       	ldi	r24, 0x0F	; 15
 122:	90 e0       	ldi	r25, 0x00	; 0
 124:	b1 df       	rcall	.-158    	; 0x88 <writeLCDdata>
}
 126:	df 91       	pop	r29
 128:	cf 91       	pop	r28
 12a:	08 95       	ret

0000012c <writeLCDcharacter>:
	writeLCDdata(0x01);				// Writing clear instruction
}

// Writes a character to current cursor position
void writeLCDcharacter(int character){
	LCD_DDR_1 = 0x3F;				// Making LCD PORTC pins outputs
 12c:	2f e3       	ldi	r18, 0x3F	; 63
 12e:	27 b9       	out	0x07, r18	; 7
	LCD_PORT_1 |= (1 << RS);		// Setting RS to send data
 130:	45 9a       	sbi	0x08, 5	; 8
	LCD_DDR_2 |= (1 << R_W);		// Making pin PB0 an output
 132:	50 9a       	sbi	0x0a, 0	; 10
	LCD_PORT_2 &= ~(1 << R_W);		// Masking or clearing pin PB0 to be low for write operation
 134:	58 98       	cbi	0x0b, 0	; 11
	writeLCDdata(character);		// Sending the character on the data lines
 136:	a8 df       	rcall	.-176    	; 0x88 <writeLCDdata>
}
 138:	08 95       	ret

0000013a <writeLCDline>:

	writeLCDdata(0x0F);				// Turning on the cursor ON
}

// Writes an array of 16 characters to the specified line
void writeLCDline(char line_data[16], int line){
 13a:	0f 93       	push	r16
 13c:	1f 93       	push	r17
 13e:	cf 93       	push	r28
 140:	df 93       	push	r29
 142:	c8 2f       	mov	r28, r24
 144:	d9 2f       	mov	r29, r25
 146:	cb 01       	movw	r24, r22
	cursorPosition(line);					// Setting cursor position
 148:	cf df       	rcall	.-98     	; 0xe8 <cursorPosition>
 14a:	0c 2f       	mov	r16, r28
 14c:	1d 2f       	mov	r17, r29
	for(int i=0; i<16; i++){				// Looping through character array
 14e:	c0 e0       	ldi	r28, 0x00	; 0
 150:	d0 e0       	ldi	r29, 0x00	; 0
		writeLCDcharacter(line_data[i]);	// Displaying character in specified array element
 152:	f8 01       	movw	r30, r16
 154:	81 91       	ld	r24, Z+
 156:	8f 01       	movw	r16, r30
 158:	90 e0       	ldi	r25, 0x00	; 0
 15a:	e8 df       	rcall	.-48     	; 0x12c <writeLCDcharacter>
}

// Writes an array of 16 characters to the specified line
void writeLCDline(char line_data[16], int line){
	cursorPosition(line);					// Setting cursor position
	for(int i=0; i<16; i++){				// Looping through character array
 15c:	21 96       	adiw	r28, 0x01	; 1
 15e:	c0 31       	cpi	r28, 0x10	; 16
 160:	d1 05       	cpc	r29, r1
 162:	b9 f7       	brne	.-18     	; 0x152 <writeLCDline+0x18>
		writeLCDcharacter(line_data[i]);	// Displaying character in specified array element
	}
}
 164:	df 91       	pop	r29
 166:	cf 91       	pop	r28
 168:	1f 91       	pop	r17
 16a:	0f 91       	pop	r16
 16c:	08 95       	ret

0000016e <clearLCD>:
	writeLCDdata(0x06); /*  Setting Entry Mode (Increment after every read write op.*/
}

// Clears the LCD and places cursor at home (1x1)
void clearLCD (void){
	LCD_DDR_1 = 0x3F;				// Making LCD PORTC pins outputs
 16e:	8f e3       	ldi	r24, 0x3F	; 63
 170:	87 b9       	out	0x07, r24	; 7
	LCD_PORT_1 &= ~(1 << RS);		// Clearing RS to send command
 172:	45 98       	cbi	0x08, 5	; 8
	LCD_DDR_2 |= (1 << R_W);		// Making pin PB0 an output
 174:	50 9a       	sbi	0x0a, 0	; 10
	LCD_PORT_2 &= ~(1 << R_W);		// Masking or clearing pin PB0 to be low for write operation
 176:	58 98       	cbi	0x0b, 0	; 11
	writeLCDdata(0x01);				// Writing clear instruction
 178:	81 e0       	ldi	r24, 0x01	; 1
 17a:	90 e0       	ldi	r25, 0x00	; 0
 17c:	85 df       	rcall	.-246    	; 0x88 <writeLCDdata>
}
 17e:	08 95       	ret

00000180 <initializeLCD>:
#define LCD_PORT_2 PORTD		// Using Port B (MC) for the LCD
#define LCD_DDR_2 DDRD			// With Port B (MC) being assigned direction register assignment


// Sets up LCD and initializes it in 4 bit mode
void initializeLCD(void){
 180:	cf 93       	push	r28
 182:	df 93       	push	r29
	int i = 0;						// counter variable for FOR loop
	
	LCD_DDR_1 = 0x3F;				// Making all LCD pins of port C outputs
 184:	8f e3       	ldi	r24, 0x3F	; 63
 186:	87 b9       	out	0x07, r24	; 7
	LCD_PORT_1 &= ~(0x3F);			// Clearing LCD pins in port C
 188:	88 b1       	in	r24, 0x08	; 8
 18a:	80 7c       	andi	r24, 0xC0	; 192
 18c:	88 b9       	out	0x08, r24	; 8
	LCD_DDR_2 |= (1 << R_W);		// Making pin PB1 an output
 18e:	50 9a       	sbi	0x0a, 0	; 10
	LCD_PORT_2 &= ~(1 << R_W);		// Masking or clearing pin PB1 to be low for write operation
 190:	58 98       	cbi	0x0b, 0	; 11
 192:	c4 e0       	ldi	r28, 0x04	; 4
 194:	d0 e0       	ldi	r29, 0x00	; 0
	
	/* 3 8-bit Function Set instructions to reset LCD */
	for(i=0; i<=3; i++){
		LCD_PORT_1 |= 0x3;
 196:	88 b1       	in	r24, 0x08	; 8
 198:	83 60       	ori	r24, 0x03	; 3
 19a:	88 b9       	out	0x08, r24	; 8
		pulseElatch();
 19c:	6c df       	rcall	.-296    	; 0x76 <pulseElatch>
 19e:	89 ef       	ldi	r24, 0xF9	; 249
 1a0:	90 e0       	ldi	r25, 0x00	; 0
 1a2:	01 97       	sbiw	r24, 0x01	; 1
 1a4:	f1 f7       	brne	.-4      	; 0x1a2 <initializeLCD+0x22>
 1a6:	00 c0       	rjmp	.+0      	; 0x1a8 <initializeLCD+0x28>
 1a8:	00 00       	nop
		_delay_ms(1);
		LCD_PORT_1 &= ~(0x3);
 1aa:	88 b1       	in	r24, 0x08	; 8
 1ac:	8c 7f       	andi	r24, 0xFC	; 252
 1ae:	88 b9       	out	0x08, r24	; 8
 1b0:	21 97       	sbiw	r28, 0x01	; 1
	LCD_PORT_1 &= ~(0x3F);			// Clearing LCD pins in port C
	LCD_DDR_2 |= (1 << R_W);		// Making pin PB1 an output
	LCD_PORT_2 &= ~(1 << R_W);		// Masking or clearing pin PB1 to be low for write operation
	
	/* 3 8-bit Function Set instructions to reset LCD */
	for(i=0; i<=3; i++){
 1b2:	89 f7       	brne	.-30     	; 0x196 <initializeLCD+0x16>
		_delay_ms(1);
		LCD_PORT_1 &= ~(0x3);
	}
	
	/* Setting Function in 4-bit mode*/
	LCD_PORT_1 |= 0x2;
 1b4:	41 9a       	sbi	0x08, 1	; 8
	pulseElatch();
 1b6:	5f df       	rcall	.-322    	; 0x76 <pulseElatch>
 1b8:	89 ef       	ldi	r24, 0xF9	; 249
 1ba:	90 e0       	ldi	r25, 0x00	; 0
 1bc:	01 97       	sbiw	r24, 0x01	; 1
 1be:	f1 f7       	brne	.-4      	; 0x1bc <initializeLCD+0x3c>
 1c0:	00 c0       	rjmp	.+0      	; 0x1c2 <initializeLCD+0x42>
 1c2:	00 00       	nop
	_delay_ms(1);
	LCD_PORT_1 &= ~(0x2);
 1c4:	41 98       	cbi	0x08, 1	; 8
	
	/* 4 BIT MODE NOW */

	writeLCDdata(0x28); /* Setting Function Set (4 bit, Dual Line, 5x8 dots */
 1c6:	88 e2       	ldi	r24, 0x28	; 40
 1c8:	90 e0       	ldi	r25, 0x00	; 0
 1ca:	5e df       	rcall	.-324    	; 0x88 <writeLCDdata>
	writeLCDdata(0x0F); /* Setting Display (Display ON, Cursor Blinking, Cursor Position ON */
 1cc:	8f e0       	ldi	r24, 0x0F	; 15
 1ce:	90 e0       	ldi	r25, 0x00	; 0
 1d0:	5b df       	rcall	.-330    	; 0x88 <writeLCDdata>
	writeLCDdata(0x06); /*  Setting Entry Mode (Increment after every read write op.*/
 1d2:	86 e0       	ldi	r24, 0x06	; 6
 1d4:	90 e0       	ldi	r25, 0x00	; 0
 1d6:	58 df       	rcall	.-336    	; 0x88 <writeLCDdata>
}
 1d8:	df 91       	pop	r29
 1da:	cf 91       	pop	r28
 1dc:	08 95       	ret

000001de <BacklightLCD>:
	LCD_PORT_1 &= ~(lowernibble);				// Clearing lower nibble
}

// Turns the LCD back light on or off
void BacklightLCD (int on1_off0){
	LCD_DDR_2 |= (1 << BL);		// Making pin PB1 an output
 1de:	51 9a       	sbi	0x0a, 1	; 10
	if (on1_off0 == 1)
 1e0:	81 30       	cpi	r24, 0x01	; 1
 1e2:	91 05       	cpc	r25, r1
 1e4:	11 f4       	brne	.+4      	; 0x1ea <BacklightLCD+0xc>
		LCD_PORT_2 &= ~(1 << BL);		// Masking or clearing pin PB1 sinking current turning on Back light
 1e6:	59 98       	cbi	0x0b, 1	; 11
 1e8:	08 95       	ret
	else
		LCD_PORT_2 |= (1 << BL);		// Setting PB1 allowing no current flow to turn bakc light off
 1ea:	59 9a       	sbi	0x0b, 1	; 11
 1ec:	08 95       	ret

000001ee <writeTOeeprom>:

int short default_code[9] = {'0','0','0','0','\0','\0','\0','\0','\0'};		// Factory default code 


// Writes an 9 element array pass code to EEPROM
void writeTOeeprom(int short code_to_save[]){
 1ee:	0f 93       	push	r16
 1f0:	1f 93       	push	r17
 1f2:	cf 93       	push	r28
	int add_count = 0;													// variable declaration to loop through eeprom addresses
	uint8_t temp_ee_address = EEPROM_DATA_ADDRESS;						// temp address variable to go through eeprom
	while(code_to_save[add_count] != '\0'){								// looping through code to save array
 1f4:	fc 01       	movw	r30, r24
 1f6:	60 81       	ld	r22, Z
 1f8:	71 81       	ldd	r23, Z+1	; 0x01
 1fa:	61 15       	cp	r22, r1
 1fc:	71 05       	cpc	r23, r1
 1fe:	81 f0       	breq	.+32     	; 0x220 <writeTOeeprom+0x32>

int short default_code[9] = {'0','0','0','0','\0','\0','\0','\0','\0'};		// Factory default code 


// Writes an 9 element array pass code to EEPROM
void writeTOeeprom(int short code_to_save[]){
 200:	8c 01       	movw	r16, r24
 202:	0e 5f       	subi	r16, 0xFE	; 254
 204:	1f 4f       	sbci	r17, 0xFF	; 255
	int add_count = 0;													// variable declaration to loop through eeprom addresses
	uint8_t temp_ee_address = EEPROM_DATA_ADDRESS;						// temp address variable to go through eeprom
 206:	c1 e0       	ldi	r28, 0x01	; 1
	while(code_to_save[add_count] != '\0'){								// looping through code to save array
		eeprom_write_byte(temp_ee_address, code_to_save[add_count]);	// writing byte to specified address
 208:	8c 2f       	mov	r24, r28
 20a:	90 e0       	ldi	r25, 0x00	; 0
 20c:	b5 d4       	rcall	.+2410   	; 0xb78 <__eewr_byte_m48a>
		temp_ee_address++;												// incrementing address counter
 20e:	cf 5f       	subi	r28, 0xFF	; 255

// Writes an 9 element array pass code to EEPROM
void writeTOeeprom(int short code_to_save[]){
	int add_count = 0;													// variable declaration to loop through eeprom addresses
	uint8_t temp_ee_address = EEPROM_DATA_ADDRESS;						// temp address variable to go through eeprom
	while(code_to_save[add_count] != '\0'){								// looping through code to save array
 210:	f8 01       	movw	r30, r16
 212:	61 91       	ld	r22, Z+
 214:	71 91       	ld	r23, Z+
 216:	8f 01       	movw	r16, r30
 218:	61 15       	cp	r22, r1
 21a:	71 05       	cpc	r23, r1
 21c:	a9 f7       	brne	.-22     	; 0x208 <writeTOeeprom+0x1a>
 21e:	01 c0       	rjmp	.+2      	; 0x222 <writeTOeeprom+0x34>


// Writes an 9 element array pass code to EEPROM
void writeTOeeprom(int short code_to_save[]){
	int add_count = 0;													// variable declaration to loop through eeprom addresses
	uint8_t temp_ee_address = EEPROM_DATA_ADDRESS;						// temp address variable to go through eeprom
 220:	c1 e0       	ldi	r28, 0x01	; 1
	while(code_to_save[add_count] != '\0'){								// looping through code to save array
		eeprom_write_byte(temp_ee_address, code_to_save[add_count]);	// writing byte to specified address
		temp_ee_address++;												// incrementing address counter
		add_count++;													// incrementing array counter
	}
	eeprom_write_byte(temp_ee_address, code_to_save[add_count]);		// writing the NULL character to the end of the pass code
 222:	8c 2f       	mov	r24, r28
 224:	90 e0       	ldi	r25, 0x00	; 0
 226:	a8 d4       	rcall	.+2384   	; 0xb78 <__eewr_byte_m48a>
	eeprom_write_byte(EEPROM_NEWCODE_ADDRESS,0x0);						// Setting new code flag
 228:	80 e0       	ldi	r24, 0x00	; 0
 22a:	90 e0       	ldi	r25, 0x00	; 0
 22c:	60 e0       	ldi	r22, 0x00	; 0
 22e:	a4 d4       	rcall	.+2376   	; 0xb78 <__eewr_byte_m48a>
}
 230:	cf 91       	pop	r28
 232:	1f 91       	pop	r17
 234:	0f 91       	pop	r16
 236:	08 95       	ret

00000238 <readFROMeeprom>:


// Reads the contents of EEPROM and store them in an 9 element array
void readFROMeeprom(int short *saved_code[]){
 238:	ef 92       	push	r14
 23a:	ff 92       	push	r15
 23c:	0f 93       	push	r16
 23e:	1f 93       	push	r17
 240:	cf 93       	push	r28
 242:	df 93       	push	r29
 244:	7c 01       	movw	r14, r24
	int add_count = 0;														// variable declaration to loop through eeprom and elements of array
	uint8_t temp_ee_address = EEPROM_DATA_ADDRESS;							// temp address variable to go through eeprom
	
	if(eeprom_read_byte(EEPROM_NEWCODE_ADDRESS) == 0x0){
 246:	80 e0       	ldi	r24, 0x00	; 0
 248:	90 e0       	ldi	r25, 0x00	; 0
 24a:	8e d4       	rcall	.+2332   	; 0xb68 <__eerd_byte_m48a>
 24c:	88 23       	and	r24, r24
 24e:	21 f4       	brne	.+8      	; 0x258 <readFROMeeprom+0x20>
 250:	87 01       	movw	r16, r14
 252:	c0 e0       	ldi	r28, 0x00	; 0
 254:	d0 e0       	ldi	r29, 0x00	; 0
 256:	0e c0       	rjmp	.+28     	; 0x274 <readFROMeeprom+0x3c>
			add_count ++;													// incrementing array counter
		}
		saved_code[add_count] = eeprom_read_byte(temp_ee_address);			// setting NULL character at the end of pass code array
	}
	else{
		while(default_code[add_count] != NULL){								// looping through code to save array
 258:	80 91 70 01 	lds	r24, 0x0170
 25c:	90 91 71 01 	lds	r25, 0x0171
 260:	00 97       	sbiw	r24, 0x00	; 0
 262:	b1 f4       	brne	.+44     	; 0x290 <readFROMeeprom+0x58>
 264:	20 e0       	ldi	r18, 0x00	; 0
 266:	30 e0       	ldi	r19, 0x00	; 0
 268:	23 c0       	rjmp	.+70     	; 0x2b0 <readFROMeeprom+0x78>
	int add_count = 0;														// variable declaration to loop through eeprom and elements of array
	uint8_t temp_ee_address = EEPROM_DATA_ADDRESS;							// temp address variable to go through eeprom
	
	if(eeprom_read_byte(EEPROM_NEWCODE_ADDRESS) == 0x0){
		while(eeprom_read_byte(temp_ee_address) != NULL){					// looping through code to save array
			saved_code[add_count] = eeprom_read_byte(temp_ee_address);		// writing byte to specified address
 26a:	f8 01       	movw	r30, r16
 26c:	81 93       	st	Z+, r24
 26e:	91 93       	st	Z+, r25
 270:	8f 01       	movw	r16, r30
			temp_ee_address++;												// incrementing address counter		
			add_count ++;													// incrementing array counter
 272:	21 96       	adiw	r28, 0x01	; 1
void readFROMeeprom(int short *saved_code[]){
	int add_count = 0;														// variable declaration to loop through eeprom and elements of array
	uint8_t temp_ee_address = EEPROM_DATA_ADDRESS;							// temp address variable to go through eeprom
	
	if(eeprom_read_byte(EEPROM_NEWCODE_ADDRESS) == 0x0){
		while(eeprom_read_byte(temp_ee_address) != NULL){					// looping through code to save array
 274:	8c 2f       	mov	r24, r28
 276:	8f 5f       	subi	r24, 0xFF	; 255
 278:	90 e0       	ldi	r25, 0x00	; 0
 27a:	76 d4       	rcall	.+2284   	; 0xb68 <__eerd_byte_m48a>
 27c:	90 e0       	ldi	r25, 0x00	; 0
 27e:	00 97       	sbiw	r24, 0x00	; 0
 280:	a1 f7       	brne	.-24     	; 0x26a <readFROMeeprom+0x32>
			saved_code[add_count] = eeprom_read_byte(temp_ee_address);		// writing byte to specified address
			temp_ee_address++;												// incrementing address counter		
			add_count ++;													// incrementing array counter
		}
		saved_code[add_count] = eeprom_read_byte(temp_ee_address);			// setting NULL character at the end of pass code array
 282:	cc 0f       	add	r28, r28
 284:	dd 1f       	adc	r29, r29
 286:	ce 0d       	add	r28, r14
 288:	df 1d       	adc	r29, r15
 28a:	19 82       	std	Y+1, r1	; 0x01
 28c:	18 82       	st	Y, r1
 28e:	17 c0       	rjmp	.+46     	; 0x2be <readFROMeeprom+0x86>
 290:	d7 01       	movw	r26, r14
 292:	e2 e7       	ldi	r30, 0x72	; 114
 294:	f1 e0       	ldi	r31, 0x01	; 1
	}
	else{
		while(default_code[add_count] != NULL){								// looping through code to save array
 296:	20 e0       	ldi	r18, 0x00	; 0
 298:	30 e0       	ldi	r19, 0x00	; 0
			saved_code[add_count] = default_code[add_count];				// writing byte to specified address
 29a:	8d 93       	st	X+, r24
 29c:	9d 93       	st	X+, r25
			add_count++;													// incrementing array counter			
 29e:	2f 5f       	subi	r18, 0xFF	; 255
 2a0:	3f 4f       	sbci	r19, 0xFF	; 255
			add_count ++;													// incrementing array counter
		}
		saved_code[add_count] = eeprom_read_byte(temp_ee_address);			// setting NULL character at the end of pass code array
	}
	else{
		while(default_code[add_count] != NULL){								// looping through code to save array
 2a2:	50 81       	ld	r21, Z
 2a4:	41 81       	ldd	r20, Z+1	; 0x01
 2a6:	32 96       	adiw	r30, 0x02	; 2
 2a8:	85 2f       	mov	r24, r21
 2aa:	94 2f       	mov	r25, r20
 2ac:	00 97       	sbiw	r24, 0x00	; 0
 2ae:	a9 f7       	brne	.-22     	; 0x29a <readFROMeeprom+0x62>
			saved_code[add_count] = default_code[add_count];				// writing byte to specified address
			add_count++;													// incrementing array counter			
		}
		saved_code[add_count] = default_code[add_count];					// setting NULL character at the end of pass code array
 2b0:	22 0f       	add	r18, r18
 2b2:	33 1f       	adc	r19, r19
 2b4:	e2 0e       	add	r14, r18
 2b6:	f3 1e       	adc	r15, r19
 2b8:	f7 01       	movw	r30, r14
 2ba:	91 83       	std	Z+1, r25	; 0x01
 2bc:	80 83       	st	Z, r24
	}	
 2be:	df 91       	pop	r29
 2c0:	cf 91       	pop	r28
 2c2:	1f 91       	pop	r17
 2c4:	0f 91       	pop	r16
 2c6:	ff 90       	pop	r15
 2c8:	ef 90       	pop	r14
 2ca:	08 95       	ret

000002cc <initializeKeypadInterrupts>:
// globals to be moved later							
volatile int key_queue[KEY_QUEUE_SIZE];							// holds user inputs
int current_key;

// initialize pin-change interrupts for keypad
void initializeKeypadInterrupts(int rows[]){
 2cc:	cf 93       	push	r28
 2ce:	df 93       	push	r29
	PCICR |= (1 << PCIE0);								// set bit 0 of PCICR
 2d0:	e8 e6       	ldi	r30, 0x68	; 104
 2d2:	f0 e0       	ldi	r31, 0x00	; 0
 2d4:	20 81       	ld	r18, Z
 2d6:	21 60       	ori	r18, 0x01	; 1
 2d8:	20 83       	st	Z, r18
 2da:	e8 2f       	mov	r30, r24
 2dc:	f9 2f       	mov	r31, r25
 2de:	24 e0       	ldi	r18, 0x04	; 4
 2e0:	30 e0       	ldi	r19, 0x00	; 0
	for(int i = 0; i < NUM_ROWS; i++){
		PCMSK0 |= (1 << rows[i]);						// allow row pins to trigger interrupts
 2e2:	ab e6       	ldi	r26, 0x6B	; 107
 2e4:	b0 e0       	ldi	r27, 0x00	; 0
 2e6:	41 e0       	ldi	r20, 0x01	; 1
 2e8:	50 e0       	ldi	r21, 0x00	; 0
 2ea:	6c 91       	ld	r22, X
 2ec:	80 81       	ld	r24, Z
 2ee:	32 96       	adiw	r30, 0x02	; 2
 2f0:	ea 01       	movw	r28, r20
 2f2:	02 c0       	rjmp	.+4      	; 0x2f8 <initializeKeypadInterrupts+0x2c>
 2f4:	cc 0f       	add	r28, r28
 2f6:	dd 1f       	adc	r29, r29
 2f8:	8a 95       	dec	r24
 2fa:	e2 f7       	brpl	.-8      	; 0x2f4 <initializeKeypadInterrupts+0x28>
 2fc:	ce 01       	movw	r24, r28
 2fe:	86 2b       	or	r24, r22
 300:	8c 93       	st	X, r24
 302:	21 50       	subi	r18, 0x01	; 1
 304:	30 40       	sbci	r19, 0x00	; 0
int current_key;

// initialize pin-change interrupts for keypad
void initializeKeypadInterrupts(int rows[]){
	PCICR |= (1 << PCIE0);								// set bit 0 of PCICR
	for(int i = 0; i < NUM_ROWS; i++){
 306:	89 f7       	brne	.-30     	; 0x2ea <initializeKeypadInterrupts+0x1e>
		PCMSK0 |= (1 << rows[i]);						// allow row pins to trigger interrupts
	}
}
 308:	df 91       	pop	r29
 30a:	cf 91       	pop	r28
 30c:	08 95       	ret

0000030e <getButtonState>:
	#else
		//round up by default
		__ticks_dc = (uint32_t)(ceil(fabs(__tmp)));
	#endif

	__builtin_avr_delay_cycles(__ticks_dc);
 30e:	86 ea       	ldi	r24, 0xA6	; 166
 310:	8a 95       	dec	r24
 312:	f1 f7       	brne	.-4      	; 0x310 <getButtonState+0x2>
 314:	00 c0       	rjmp	.+0      	; 0x316 <getButtonState+0x8>
}

int getButtonState(){									// check rows, if any are low then a key is being pressed
	_delay_us(500);
	int s = 0;
	if(!(PINB &(1 << ROW1))) s = 1;
 316:	18 9b       	sbis	0x03, 0	; 3
 318:	0f c0       	rjmp	.+30     	; 0x338 <getButtonState+0x2a>
	else if(!(PINB &(1 << ROW2))) s = 1;				
 31a:	19 9b       	sbis	0x03, 1	; 3
 31c:	10 c0       	rjmp	.+32     	; 0x33e <getButtonState+0x30>
	else if(!(PINB &(1 << ROW3))) s = 1;				
 31e:	1a 9b       	sbis	0x03, 2	; 3
 320:	11 c0       	rjmp	.+34     	; 0x344 <getButtonState+0x36>
	else if(!(PINB &(1 << ROW4))) s = 1;
 322:	83 b1       	in	r24, 0x03	; 3
}

int getButtonState(){									// check rows, if any are low then a key is being pressed
	_delay_us(500);
	int s = 0;
	if(!(PINB &(1 << ROW1))) s = 1;
 324:	99 27       	eor	r25, r25
 326:	87 fd       	sbrc	r24, 7
 328:	90 95       	com	r25
 32a:	80 95       	com	r24
 32c:	90 95       	com	r25
 32e:	88 27       	eor	r24, r24
 330:	99 0f       	add	r25, r25
 332:	88 1f       	adc	r24, r24
 334:	99 27       	eor	r25, r25
 336:	08 95       	ret
 338:	81 e0       	ldi	r24, 0x01	; 1
 33a:	90 e0       	ldi	r25, 0x00	; 0
 33c:	08 95       	ret
	else if(!(PINB &(1 << ROW2))) s = 1;				
 33e:	81 e0       	ldi	r24, 0x01	; 1
 340:	90 e0       	ldi	r25, 0x00	; 0
 342:	08 95       	ret
	else if(!(PINB &(1 << ROW3))) s = 1;				
 344:	81 e0       	ldi	r24, 0x01	; 1
 346:	90 e0       	ldi	r25, 0x00	; 0
	else if(!(PINB &(1 << ROW4))) s = 1;
	return s;
}
 348:	08 95       	ret

0000034a <getRow>:

int getRow(void){										// determine which row on the keypad caused the interrupts.
	int r;												// temporary placeholder for the row 
		 if(!(PINB &(1 << ROW1))) r = ROW1;				// if row 1 is low then the key press was in row 1
 34a:	18 9b       	sbis	0x03, 0	; 3
 34c:	07 c0       	rjmp	.+14     	; 0x35c <getRow+0x12>
	else if(!(PINB &(1 << ROW2))) r = ROW2;				// if row 2 is low then the key press was in row 2	
 34e:	19 9b       	sbis	0x03, 1	; 3
 350:	08 c0       	rjmp	.+16     	; 0x362 <getRow+0x18>
	else if(!(PINB &(1 << ROW3))) r = ROW3;				// if row 3 is low then the key press was in row 3
 352:	1a 9b       	sbis	0x03, 2	; 3
 354:	09 c0       	rjmp	.+18     	; 0x368 <getRow+0x1e>
	else if(!(PINB &(1 << ROW4))) r = ROW4;				// if row 4 is low then the key press was in row 4
 356:	1f 9b       	sbis	0x03, 7	; 3
 358:	0a c0       	rjmp	.+20     	; 0x36e <getRow+0x24>
 35a:	08 95       	ret
	return s;
}

int getRow(void){										// determine which row on the keypad caused the interrupts.
	int r;												// temporary placeholder for the row 
		 if(!(PINB &(1 << ROW1))) r = ROW1;				// if row 1 is low then the key press was in row 1
 35c:	80 e0       	ldi	r24, 0x00	; 0
 35e:	90 e0       	ldi	r25, 0x00	; 0
 360:	08 95       	ret
	else if(!(PINB &(1 << ROW2))) r = ROW2;				// if row 2 is low then the key press was in row 2	
 362:	81 e0       	ldi	r24, 0x01	; 1
 364:	90 e0       	ldi	r25, 0x00	; 0
 366:	08 95       	ret
	else if(!(PINB &(1 << ROW3))) r = ROW3;				// if row 3 is low then the key press was in row 3
 368:	82 e0       	ldi	r24, 0x02	; 2
 36a:	90 e0       	ldi	r25, 0x00	; 0
 36c:	08 95       	ret
	else if(!(PINB &(1 << ROW4))) r = ROW4;				// if row 4 is low then the key press was in row 4
 36e:	87 e0       	ldi	r24, 0x07	; 7
 370:	90 e0       	ldi	r25, 0x00	; 0
	return r;
}
 372:	08 95       	ret

00000374 <getCol>:

int getCol(int r) {										// strobe outputs to determine column
	int c;
		
	PORTB |= (1 << COL1);								// set first column high
 374:	2b 9a       	sbi	0x05, 3	; 5
 376:	66 ea       	ldi	r22, 0xA6	; 166
 378:	6a 95       	dec	r22
 37a:	f1 f7       	brne	.-4      	; 0x378 <getCol+0x4>
 37c:	00 c0       	rjmp	.+0      	; 0x37e <getCol+0xa>
	_delay_us(500);										// wait for debouncing filter
	if((PINB & (1 << r))) {								// if the row went high
 37e:	93 b1       	in	r25, 0x03	; 3
		c = 1;											// then the key press was in the first column
	}
	PORTB &= ~(1 << COL1);								// set first column back to low
 380:	2b 98       	cbi	0x05, 3	; 5
	
	
	PORTB |= (1 << COL2);								// set second column high
 382:	2c 9a       	sbi	0x05, 4	; 5
 384:	76 ea       	ldi	r23, 0xA6	; 166
 386:	7a 95       	dec	r23
 388:	f1 f7       	brne	.-4      	; 0x386 <getCol+0x12>
 38a:	00 c0       	rjmp	.+0      	; 0x38c <getCol+0x18>
	_delay_us(500);										// wait for denouncing filter
	if((PINB & (1 << r))) {								// if the row went high
 38c:	23 b1       	in	r18, 0x03	; 3
 38e:	30 e0       	ldi	r19, 0x00	; 0
 390:	08 2e       	mov	r0, r24
 392:	02 c0       	rjmp	.+4      	; 0x398 <getCol+0x24>
 394:	35 95       	asr	r19
 396:	27 95       	ror	r18
 398:	0a 94       	dec	r0
 39a:	e2 f7       	brpl	.-8      	; 0x394 <getCol+0x20>
 39c:	20 fd       	sbrc	r18, 0
 39e:	03 c0       	rjmp	.+6      	; 0x3a6 <getCol+0x32>
 3a0:	21 e0       	ldi	r18, 0x01	; 1
 3a2:	30 e0       	ldi	r19, 0x00	; 0
 3a4:	02 c0       	rjmp	.+4      	; 0x3aa <getCol+0x36>
		c = 2;											// then the key press was in the second column
 3a6:	22 e0       	ldi	r18, 0x02	; 2
 3a8:	30 e0       	ldi	r19, 0x00	; 0
	}
	PORTB &= ~(1 << COL2);								// set the second column back to low
 3aa:	2c 98       	cbi	0x05, 4	; 5

	
	PORTB |= (1 << COL3);								// set third column high
 3ac:	2d 9a       	sbi	0x05, 5	; 5
 3ae:	96 ea       	ldi	r25, 0xA6	; 166
 3b0:	9a 95       	dec	r25
 3b2:	f1 f7       	brne	.-4      	; 0x3b0 <getCol+0x3c>
 3b4:	00 c0       	rjmp	.+0      	; 0x3b6 <getCol+0x42>
	_delay_us(500);										// wait for denouncing filter
	if((PINB & (1 << r))) {								// if the row went high
 3b6:	43 b1       	in	r20, 0x03	; 3
 3b8:	50 e0       	ldi	r21, 0x00	; 0
 3ba:	ba 01       	movw	r22, r20
 3bc:	02 c0       	rjmp	.+4      	; 0x3c2 <getCol+0x4e>
 3be:	75 95       	asr	r23
 3c0:	67 95       	ror	r22
 3c2:	8a 95       	dec	r24
 3c4:	e2 f7       	brpl	.-8      	; 0x3be <getCol+0x4a>
 3c6:	60 ff       	sbrs	r22, 0
 3c8:	02 c0       	rjmp	.+4      	; 0x3ce <getCol+0x5a>
		c = 3;											// then the key press was in the third column
 3ca:	23 e0       	ldi	r18, 0x03	; 3
 3cc:	30 e0       	ldi	r19, 0x00	; 0
	}
	PORTB &= ~(1 << COL3);								// set the third column back to low
 3ce:	2d 98       	cbi	0x05, 5	; 5

	
	return c;
}
 3d0:	82 2f       	mov	r24, r18
 3d2:	93 2f       	mov	r25, r19
 3d4:	08 95       	ret

000003d6 <keyMap>:

int keyMap(int r,int c) { 								// maps (row,column) pairs to an integer value corresponding to a key
	int k;
														// adjust row value to account for 0 index
		 if((r == ROW1) && (c == 1)) k = 0x31;
 3d6:	00 97       	sbiw	r24, 0x00	; 0
 3d8:	51 f4       	brne	.+20     	; 0x3ee <keyMap+0x18>
 3da:	61 30       	cpi	r22, 0x01	; 1
 3dc:	71 05       	cpc	r23, r1
 3de:	81 f1       	breq	.+96     	; 0x440 <keyMap+0x6a>
	else if((r == ROW1) && (c == 2)) k = 0x32;
 3e0:	62 30       	cpi	r22, 0x02	; 2
 3e2:	71 05       	cpc	r23, r1
 3e4:	81 f1       	breq	.+96     	; 0x446 <keyMap+0x70>
	else if((r == ROW1) && (c == 3)) k = 0x33;
 3e6:	63 30       	cpi	r22, 0x03	; 3
 3e8:	71 05       	cpc	r23, r1
 3ea:	e9 f4       	brne	.+58     	; 0x426 <keyMap+0x50>
 3ec:	2f c0       	rjmp	.+94     	; 0x44c <keyMap+0x76>
	else if((r == ROW2) && (c == 1)) k = 0x34;
 3ee:	81 30       	cpi	r24, 0x01	; 1
 3f0:	91 05       	cpc	r25, r1
 3f2:	51 f4       	brne	.+20     	; 0x408 <keyMap+0x32>
 3f4:	61 30       	cpi	r22, 0x01	; 1
 3f6:	71 05       	cpc	r23, r1
 3f8:	61 f1       	breq	.+88     	; 0x452 <keyMap+0x7c>
	else if((r == ROW2) && (c == 2)) k = 0x35;
 3fa:	62 30       	cpi	r22, 0x02	; 2
 3fc:	71 05       	cpc	r23, r1
 3fe:	61 f1       	breq	.+88     	; 0x458 <keyMap+0x82>
	else if((r == ROW2) && (c == 3)) k = 0x36;
 400:	63 30       	cpi	r22, 0x03	; 3
 402:	71 05       	cpc	r23, r1
 404:	e9 f5       	brne	.+122    	; 0x480 <keyMap+0xaa>
 406:	2b c0       	rjmp	.+86     	; 0x45e <keyMap+0x88>
	else if((r == ROW3) && (c == 1)) k = 0x37;
 408:	82 30       	cpi	r24, 0x02	; 2
 40a:	91 05       	cpc	r25, r1
 40c:	61 f4       	brne	.+24     	; 0x426 <keyMap+0x50>
 40e:	61 30       	cpi	r22, 0x01	; 1
 410:	71 05       	cpc	r23, r1
 412:	41 f1       	breq	.+80     	; 0x464 <keyMap+0x8e>
	else if((r == ROW3) && (c == 2)) k = 0x38;
 414:	62 30       	cpi	r22, 0x02	; 2
 416:	71 05       	cpc	r23, r1
 418:	41 f1       	breq	.+80     	; 0x46a <keyMap+0x94>
	else if((r == ROW3) && (c == 3)) k = 0x39;
 41a:	63 30       	cpi	r22, 0x03	; 3
 41c:	71 05       	cpc	r23, r1
 41e:	81 f5       	brne	.+96     	; 0x480 <keyMap+0xaa>
 420:	29 e3       	ldi	r18, 0x39	; 57
 422:	30 e0       	ldi	r19, 0x00	; 0
 424:	2d c0       	rjmp	.+90     	; 0x480 <keyMap+0xaa>
	else if((r == ROW4) && (c == 1)) k = 0x2A;
 426:	87 30       	cpi	r24, 0x07	; 7
 428:	91 05       	cpc	r25, r1
 42a:	51 f5       	brne	.+84     	; 0x480 <keyMap+0xaa>
 42c:	61 30       	cpi	r22, 0x01	; 1
 42e:	71 05       	cpc	r23, r1
 430:	f9 f0       	breq	.+62     	; 0x470 <keyMap+0x9a>
	else if((r == ROW4) && (c == 2)) k = 0x30;
 432:	62 30       	cpi	r22, 0x02	; 2
 434:	71 05       	cpc	r23, r1
 436:	f9 f0       	breq	.+62     	; 0x476 <keyMap+0xa0>
	else if((r == ROW4) && (c == 3)) k = 0x23;
 438:	63 30       	cpi	r22, 0x03	; 3
 43a:	71 05       	cpc	r23, r1
 43c:	09 f5       	brne	.+66     	; 0x480 <keyMap+0xaa>
 43e:	1e c0       	rjmp	.+60     	; 0x47c <keyMap+0xa6>
}

int keyMap(int r,int c) { 								// maps (row,column) pairs to an integer value corresponding to a key
	int k;
														// adjust row value to account for 0 index
		 if((r == ROW1) && (c == 1)) k = 0x31;
 440:	21 e3       	ldi	r18, 0x31	; 49
 442:	30 e0       	ldi	r19, 0x00	; 0
 444:	1d c0       	rjmp	.+58     	; 0x480 <keyMap+0xaa>
	else if((r == ROW1) && (c == 2)) k = 0x32;
 446:	22 e3       	ldi	r18, 0x32	; 50
 448:	30 e0       	ldi	r19, 0x00	; 0
 44a:	1a c0       	rjmp	.+52     	; 0x480 <keyMap+0xaa>
	else if((r == ROW1) && (c == 3)) k = 0x33;
 44c:	23 e3       	ldi	r18, 0x33	; 51
 44e:	30 e0       	ldi	r19, 0x00	; 0
 450:	17 c0       	rjmp	.+46     	; 0x480 <keyMap+0xaa>
	else if((r == ROW2) && (c == 1)) k = 0x34;
 452:	24 e3       	ldi	r18, 0x34	; 52
 454:	30 e0       	ldi	r19, 0x00	; 0
 456:	14 c0       	rjmp	.+40     	; 0x480 <keyMap+0xaa>
	else if((r == ROW2) && (c == 2)) k = 0x35;
 458:	25 e3       	ldi	r18, 0x35	; 53
 45a:	30 e0       	ldi	r19, 0x00	; 0
 45c:	11 c0       	rjmp	.+34     	; 0x480 <keyMap+0xaa>
	else if((r == ROW2) && (c == 3)) k = 0x36;
 45e:	26 e3       	ldi	r18, 0x36	; 54
 460:	30 e0       	ldi	r19, 0x00	; 0
 462:	0e c0       	rjmp	.+28     	; 0x480 <keyMap+0xaa>
	else if((r == ROW3) && (c == 1)) k = 0x37;
 464:	27 e3       	ldi	r18, 0x37	; 55
 466:	30 e0       	ldi	r19, 0x00	; 0
 468:	0b c0       	rjmp	.+22     	; 0x480 <keyMap+0xaa>
	else if((r == ROW3) && (c == 2)) k = 0x38;
 46a:	28 e3       	ldi	r18, 0x38	; 56
 46c:	30 e0       	ldi	r19, 0x00	; 0
 46e:	08 c0       	rjmp	.+16     	; 0x480 <keyMap+0xaa>
	else if((r == ROW3) && (c == 3)) k = 0x39;
	else if((r == ROW4) && (c == 1)) k = 0x2A;
 470:	2a e2       	ldi	r18, 0x2A	; 42
 472:	30 e0       	ldi	r19, 0x00	; 0
 474:	05 c0       	rjmp	.+10     	; 0x480 <keyMap+0xaa>
	else if((r == ROW4) && (c == 2)) k = 0x30;
 476:	20 e3       	ldi	r18, 0x30	; 48
 478:	30 e0       	ldi	r19, 0x00	; 0
 47a:	02 c0       	rjmp	.+4      	; 0x480 <keyMap+0xaa>
	else if((r == ROW4) && (c == 3)) k = 0x23;
 47c:	23 e2       	ldi	r18, 0x23	; 35
 47e:	30 e0       	ldi	r19, 0x00	; 0
	return k;
}
 480:	82 2f       	mov	r24, r18
 482:	93 2f       	mov	r25, r19
 484:	08 95       	ret

00000486 <getKeyPress>:
		PCMSK0 |= (1 << rows[i]);						// allow row pins to trigger interrupts
	}
}

// adds the most recent key press to the key_queue
void getKeyPress(void){		
 486:	cf 93       	push	r28
 488:	df 93       	push	r29
	int row;
	int col;
	int key;							
	row = getRow();									// get the row of current key being pressed
 48a:	5f df       	rcall	.-322    	; 0x34a <getRow>
 48c:	ec 01       	movw	r28, r24
	col = getCol(row); 								// get the col of current key being pressed		
 48e:	72 df       	rcall	.-284    	; 0x374 <getCol>
 490:	bc 01       	movw	r22, r24
	key = keyMap(row,col);							// will hold the key value to be added to queue
 492:	ce 01       	movw	r24, r28
 494:	a0 df       	rcall	.-192    	; 0x3d6 <keyMap>
	//pushKey(key); 									// push key onto queue		
	current_key = key;
 496:	90 93 87 01 	sts	0x0187, r25
 49a:	80 93 86 01 	sts	0x0186, r24
}
 49e:	df 91       	pop	r29
 4a0:	cf 91       	pop	r28
 4a2:	08 95       	ret

000004a4 <popKey>:
	else if((r == ROW4) && (c == 3)) k = 0x23;
	return k;
}

int popKey(void){ 											// pop first element and shift queue;
	int k = key_queue[0];
 4a4:	a0 91 88 01 	lds	r26, 0x0188
 4a8:	b0 91 89 01 	lds	r27, 0x0189
	for(int i = 0; i < KEY_QUEUE_SIZE - 1; i++){
 4ac:	80 e0       	ldi	r24, 0x00	; 0
 4ae:	90 e0       	ldi	r25, 0x00	; 0
		key_queue[i] = key_queue[i+1];
 4b0:	68 e8       	ldi	r22, 0x88	; 136
 4b2:	71 e0       	ldi	r23, 0x01	; 1
 4b4:	01 c0       	rjmp	.+2      	; 0x4b8 <popKey+0x14>
	return k;
}

int popKey(void){ 											// pop first element and shift queue;
	int k = key_queue[0];
	for(int i = 0; i < KEY_QUEUE_SIZE - 1; i++){
 4b6:	c9 01       	movw	r24, r18
		key_queue[i] = key_queue[i+1];
 4b8:	9c 01       	movw	r18, r24
 4ba:	2f 5f       	subi	r18, 0xFF	; 255
 4bc:	3f 4f       	sbci	r19, 0xFF	; 255
 4be:	f9 01       	movw	r30, r18
 4c0:	ee 0f       	add	r30, r30
 4c2:	ff 1f       	adc	r31, r31
 4c4:	e6 0f       	add	r30, r22
 4c6:	f7 1f       	adc	r31, r23
 4c8:	40 81       	ld	r20, Z
 4ca:	51 81       	ldd	r21, Z+1	; 0x01
 4cc:	fc 01       	movw	r30, r24
 4ce:	ee 0f       	add	r30, r30
 4d0:	ff 1f       	adc	r31, r31
 4d2:	e6 0f       	add	r30, r22
 4d4:	f7 1f       	adc	r31, r23
 4d6:	51 83       	std	Z+1, r21	; 0x01
 4d8:	40 83       	st	Z, r20
	return k;
}

int popKey(void){ 											// pop first element and shift queue;
	int k = key_queue[0];
	for(int i = 0; i < KEY_QUEUE_SIZE - 1; i++){
 4da:	29 30       	cpi	r18, 0x09	; 9
 4dc:	31 05       	cpc	r19, r1
 4de:	59 f7       	brne	.-42     	; 0x4b6 <popKey+0x12>
		key_queue[i] = key_queue[i+1];
	}	
	key_queue[KEY_QUEUE_SIZE-1] = '\0';
 4e0:	10 92 9b 01 	sts	0x019B, r1
 4e4:	10 92 9a 01 	sts	0x019A, r1
	return k;
}
 4e8:	8a 2f       	mov	r24, r26
 4ea:	9b 2f       	mov	r25, r27
 4ec:	08 95       	ret

000004ee <pushKey>:

void pushKey(int k){ 										// shift queue and update first element
 4ee:	dc 01       	movw	r26, r24
	for(int i = KEY_QUEUE_SIZE - 1; i > 0; i--){
 4f0:	89 e0       	ldi	r24, 0x09	; 9
 4f2:	90 e0       	ldi	r25, 0x00	; 0
		key_queue[i] = key_queue[i-1];
 4f4:	68 e8       	ldi	r22, 0x88	; 136
 4f6:	71 e0       	ldi	r23, 0x01	; 1
	}	
	key_queue[KEY_QUEUE_SIZE-1] = '\0';
	return k;
}

void pushKey(int k){ 										// shift queue and update first element
 4f8:	9c 01       	movw	r18, r24
 4fa:	21 50       	subi	r18, 0x01	; 1
 4fc:	30 40       	sbci	r19, 0x00	; 0
	for(int i = KEY_QUEUE_SIZE - 1; i > 0; i--){
		key_queue[i] = key_queue[i-1];
 4fe:	f9 01       	movw	r30, r18
 500:	ee 0f       	add	r30, r30
 502:	ff 1f       	adc	r31, r31
 504:	e6 0f       	add	r30, r22
 506:	f7 1f       	adc	r31, r23
 508:	40 81       	ld	r20, Z
 50a:	51 81       	ldd	r21, Z+1	; 0x01
 50c:	fc 01       	movw	r30, r24
 50e:	ee 0f       	add	r30, r30
 510:	ff 1f       	adc	r31, r31
 512:	e6 0f       	add	r30, r22
 514:	f7 1f       	adc	r31, r23
 516:	51 83       	std	Z+1, r21	; 0x01
 518:	40 83       	st	Z, r20
	key_queue[KEY_QUEUE_SIZE-1] = '\0';
	return k;
}

void pushKey(int k){ 										// shift queue and update first element
	for(int i = KEY_QUEUE_SIZE - 1; i > 0; i--){
 51a:	c9 01       	movw	r24, r18
 51c:	00 97       	sbiw	r24, 0x00	; 0
 51e:	61 f7       	brne	.-40     	; 0x4f8 <pushKey+0xa>
		key_queue[i] = key_queue[i-1];
	}
	key_queue[0] = k;	
 520:	b0 93 89 01 	sts	0x0189, r27
 524:	a0 93 88 01 	sts	0x0188, r26
}
 528:	08 95       	ret

0000052a <clearKeyQueue>:

void clearKeyQueue(void){ 										// clears submit_input, code_input, and input_index
	for(int i = 0; i < KEY_QUEUE_SIZE; i++){
 52a:	80 e0       	ldi	r24, 0x00	; 0
 52c:	90 e0       	ldi	r25, 0x00	; 0
		key_queue[i] = '\0';
 52e:	28 e8       	ldi	r18, 0x88	; 136
 530:	31 e0       	ldi	r19, 0x01	; 1
 532:	fc 01       	movw	r30, r24
 534:	ee 0f       	add	r30, r30
 536:	ff 1f       	adc	r31, r31
 538:	e2 0f       	add	r30, r18
 53a:	f3 1f       	adc	r31, r19
 53c:	11 82       	std	Z+1, r1	; 0x01
 53e:	10 82       	st	Z, r1
	}
	key_queue[0] = k;	
}

void clearKeyQueue(void){ 										// clears submit_input, code_input, and input_index
	for(int i = 0; i < KEY_QUEUE_SIZE; i++){
 540:	01 96       	adiw	r24, 0x01	; 1
 542:	8a 30       	cpi	r24, 0x0A	; 10
 544:	91 05       	cpc	r25, r1
 546:	a9 f7       	brne	.-22     	; 0x532 <clearKeyQueue+0x8>
		key_queue[i] = '\0';
	}
	
}
 548:	08 95       	ret

0000054a <initRows>:

void initRows(int r[]){									// sets keypad rows as inputs
 54a:	e8 2f       	mov	r30, r24
 54c:	f9 2f       	mov	r31, r25
 54e:	84 e0       	ldi	r24, 0x04	; 4
 550:	90 e0       	ldi	r25, 0x00	; 0
for(int i = 0; i < NUM_ROWS; i++){
	DDRB &= ~(1 << r[i]);
 552:	41 e0       	ldi	r20, 0x01	; 1
 554:	50 e0       	ldi	r21, 0x00	; 0
 556:	64 b1       	in	r22, 0x04	; 4
 558:	20 81       	ld	r18, Z
 55a:	32 96       	adiw	r30, 0x02	; 2
 55c:	da 01       	movw	r26, r20
 55e:	02 c0       	rjmp	.+4      	; 0x564 <initRows+0x1a>
 560:	aa 0f       	add	r26, r26
 562:	bb 1f       	adc	r27, r27
 564:	2a 95       	dec	r18
 566:	e2 f7       	brpl	.-8      	; 0x560 <initRows+0x16>
 568:	9d 01       	movw	r18, r26
 56a:	20 95       	com	r18
 56c:	26 23       	and	r18, r22
 56e:	24 b9       	out	0x04, r18	; 4
 570:	01 97       	sbiw	r24, 0x01	; 1
	}
	
}

void initRows(int r[]){									// sets keypad rows as inputs
for(int i = 0; i < NUM_ROWS; i++){
 572:	89 f7       	brne	.-30     	; 0x556 <initRows+0xc>
	DDRB &= ~(1 << r[i]);
}
}
 574:	08 95       	ret

00000576 <initColumns>:

void initColumns(int c[]){								// sets keypad columns as outputs
	for(int i = 0; i < NUM_COLS; i++){
 576:	e8 2f       	mov	r30, r24
 578:	f9 2f       	mov	r31, r25
 57a:	20 e0       	ldi	r18, 0x00	; 0
 57c:	30 e0       	ldi	r19, 0x00	; 0
		PORTB &= ~(1 << c[i]);							// columns to output low
 57e:	41 e0       	ldi	r20, 0x01	; 1
 580:	50 e0       	ldi	r21, 0x00	; 0
 582:	65 b1       	in	r22, 0x05	; 5
for(int i = 0; i < NUM_ROWS; i++){
	DDRB &= ~(1 << r[i]);
}
}

void initColumns(int c[]){								// sets keypad columns as outputs
 584:	df 01       	movw	r26, r30
	for(int i = 0; i < NUM_COLS; i++){
		PORTB &= ~(1 << c[i]);							// columns to output low
 586:	ca 01       	movw	r24, r20
 588:	00 80       	ld	r0, Z
 58a:	02 c0       	rjmp	.+4      	; 0x590 <initColumns+0x1a>
 58c:	88 0f       	add	r24, r24
 58e:	99 1f       	adc	r25, r25
 590:	0a 94       	dec	r0
 592:	e2 f7       	brpl	.-8      	; 0x58c <initColumns+0x16>
 594:	80 95       	com	r24
 596:	86 23       	and	r24, r22
 598:	85 b9       	out	0x05, r24	; 5
		DDRB |= (1 << c[i]);							// set columns as outputs
 59a:	64 b1       	in	r22, 0x04	; 4
 59c:	32 96       	adiw	r30, 0x02	; 2
 59e:	ca 01       	movw	r24, r20
 5a0:	0c 90       	ld	r0, X
 5a2:	02 c0       	rjmp	.+4      	; 0x5a8 <initColumns+0x32>
 5a4:	88 0f       	add	r24, r24
 5a6:	99 1f       	adc	r25, r25
 5a8:	0a 94       	dec	r0
 5aa:	e2 f7       	brpl	.-8      	; 0x5a4 <initColumns+0x2e>
 5ac:	86 2b       	or	r24, r22
 5ae:	84 b9       	out	0x04, r24	; 4
	DDRB &= ~(1 << r[i]);
}
}

void initColumns(int c[]){								// sets keypad columns as outputs
	for(int i = 0; i < NUM_COLS; i++){
 5b0:	2f 5f       	subi	r18, 0xFF	; 255
 5b2:	3f 4f       	sbci	r19, 0xFF	; 255
 5b4:	23 30       	cpi	r18, 0x03	; 3
 5b6:	31 05       	cpc	r19, r1
 5b8:	21 f7       	brne	.-56     	; 0x582 <initColumns+0xc>
		PORTB &= ~(1 << c[i]);							// columns to output low
		DDRB |= (1 << c[i]);							// set columns as outputs
	}
}
 5ba:	08 95       	ret

000005bc <__vector_3>:

// interrupt service routine for a key press/release
 ISR(PCINT0_vect){
 5bc:	1f 92       	push	r1
 5be:	0f 92       	push	r0
 5c0:	0f b6       	in	r0, 0x3f	; 63
 5c2:	0f 92       	push	r0
 5c4:	11 24       	eor	r1, r1
 5c6:	2f 93       	push	r18
 5c8:	3f 93       	push	r19
 5ca:	4f 93       	push	r20
 5cc:	5f 93       	push	r21
 5ce:	6f 93       	push	r22
 5d0:	7f 93       	push	r23
 5d2:	8f 93       	push	r24
 5d4:	9f 93       	push	r25
 5d6:	af 93       	push	r26
 5d8:	bf 93       	push	r27
 5da:	ef 93       	push	r30
 5dc:	ff 93       	push	r31
	#else
		//round up by default
		__ticks_dc = (uint32_t)(ceil(fabs(__tmp)));
	#endif

	__builtin_avr_delay_cycles(__ticks_dc);
 5de:	89 ef       	ldi	r24, 0xF9	; 249
 5e0:	90 e0       	ldi	r25, 0x00	; 0
 5e2:	01 97       	sbiw	r24, 0x01	; 1
 5e4:	f1 f7       	brne	.-4      	; 0x5e2 <__vector_3+0x26>
 5e6:	00 c0       	rjmp	.+0      	; 0x5e8 <__vector_3+0x2c>
 5e8:	00 00       	nop
	 _delay_ms(1);
	 if(getButtonState()){
 5ea:	91 de       	rcall	.-734    	; 0x30e <getButtonState>
 5ec:	00 97       	sbiw	r24, 0x00	; 0
 5ee:	41 f0       	breq	.+16     	; 0x600 <__vector_3+0x44>
		 getKeyPress();
 5f0:	4a df       	rcall	.-364    	; 0x486 <getKeyPress>
 5f2:	83 ed       	ldi	r24, 0xD3	; 211
 5f4:	90 e3       	ldi	r25, 0x30	; 48
 5f6:	01 97       	sbiw	r24, 0x01	; 1
 5f8:	f1 f7       	brne	.-4      	; 0x5f6 <__vector_3+0x3a>
 5fa:	00 c0       	rjmp	.+0      	; 0x5fc <__vector_3+0x40>
 5fc:	00 00       	nop
 5fe:	0c c0       	rjmp	.+24     	; 0x618 <__vector_3+0x5c>
		 _delay_ms(50);
	 }
	 else if(!getButtonState()){
 600:	86 de       	rcall	.-756    	; 0x30e <getButtonState>
 602:	00 97       	sbiw	r24, 0x00	; 0
 604:	49 f4       	brne	.+18     	; 0x618 <__vector_3+0x5c>
		 pushKey(current_key);
 606:	80 91 86 01 	lds	r24, 0x0186
 60a:	90 91 87 01 	lds	r25, 0x0187
 60e:	6f df       	rcall	.-290    	; 0x4ee <pushKey>
		 BacklightLCD(1);
 610:	81 e0       	ldi	r24, 0x01	; 1
 612:	90 e0       	ldi	r25, 0x00	; 0
 614:	e4 dd       	rcall	.-1080   	; 0x1de <BacklightLCD>
		 resetTimer();
 616:	2a dd       	rcall	.-1452   	; 0x6c <resetTimer>
 618:	81 ee       	ldi	r24, 0xE1	; 225
 61a:	94 e0       	ldi	r25, 0x04	; 4
 61c:	01 97       	sbiw	r24, 0x01	; 1
 61e:	f1 f7       	brne	.-4      	; 0x61c <__vector_3+0x60>
 620:	00 c0       	rjmp	.+0      	; 0x622 <__vector_3+0x66>
 622:	00 00       	nop
	 }
	 _delay_ms(5);
 }
 624:	ff 91       	pop	r31
 626:	ef 91       	pop	r30
 628:	bf 91       	pop	r27
 62a:	af 91       	pop	r26
 62c:	9f 91       	pop	r25
 62e:	8f 91       	pop	r24
 630:	7f 91       	pop	r23
 632:	6f 91       	pop	r22
 634:	5f 91       	pop	r21
 636:	4f 91       	pop	r20
 638:	3f 91       	pop	r19
 63a:	2f 91       	pop	r18
 63c:	0f 90       	pop	r0
 63e:	0f be       	out	0x3f, r0	; 63
 640:	0f 90       	pop	r0
 642:	1f 90       	pop	r1
 644:	18 95       	reti

00000646 <unlock>:
#define BUFFER 250				// pause for 1/4 sec to allow motor to shove off


int unlock(int status)
{
	cli();							// disable interrupt
 646:	f8 94       	cli
	
	if(status != 0)					// if not open, open
 648:	00 97       	sbiw	r24, 0x00	; 0
 64a:	09 f0       	breq	.+2      	; 0x64e <unlock+0x8>
		MOTORPORT |= PULLIN;		// FIN goes high, lock shoves off
 64c:	5c 9a       	sbi	0x0b, 4	; 11
 64e:	e3 e2       	ldi	r30, 0x23	; 35
 650:	f4 ef       	ldi	r31, 0xF4	; 244
 652:	31 97       	sbiw	r30, 0x01	; 1
 654:	f1 f7       	brne	.-4      	; 0x652 <unlock+0xc>
 656:	00 c0       	rjmp	.+0      	; 0x658 <unlock+0x12>
 658:	00 00       	nop
	
	_delay_ms(BUFFER);				// motor propagation delay
	
	while(status != 0){				// while not open
 65a:	00 97       	sbiw	r24, 0x00	; 0
 65c:	31 f4       	brne	.+12     	; 0x66a <unlock+0x24>
 65e:	09 c0       	rjmp	.+18     	; 0x672 <unlock+0x2c>
									
		if((FDBKPORT & (1<<FDBKPIN))==0)	// check for button press
 660:	1e 99       	sbic	0x03, 6	; 3
 662:	fe cf       	rjmp	.-4      	; 0x660 <unlock+0x1a>
			status = 0;						// lock is 0=open
 664:	80 e0       	ldi	r24, 0x00	; 0
 666:	90 e0       	ldi	r25, 0x00	; 0
 668:	04 c0       	rjmp	.+8      	; 0x672 <unlock+0x2c>
	
	_delay_ms(BUFFER);				// motor propagation delay
	
	while(status != 0){				// while not open
									
		if((FDBKPORT & (1<<FDBKPIN))==0)	// check for button press
 66a:	1e 99       	sbic	0x03, 6	; 3
 66c:	f9 cf       	rjmp	.-14     	; 0x660 <unlock+0x1a>
			status = 0;						// lock is 0=open
 66e:	80 e0       	ldi	r24, 0x00	; 0
 670:	90 e0       	ldi	r25, 0x00	; 0
	}		

	MOTORPORT &= ~PULLIN;		// FIN goes low, lock stops
 672:	5c 98       	cbi	0x0b, 4	; 11
	sei();						// re-enable interrupt
 674:	78 94       	sei
	return status;				// update lock state
}
 676:	08 95       	ret

00000678 <lock>:

int lock(int status)
{
	cli();						// disable interrupt
 678:	f8 94       	cli
	
	if(status != 1)					// if not locked, lock
 67a:	81 30       	cpi	r24, 0x01	; 1
 67c:	91 05       	cpc	r25, r1
 67e:	09 f0       	breq	.+2      	; 0x682 <lock+0xa>
		MOTORPORT |= PUSHOUT;		// RIN goes high, lock shoves off
 680:	5b 9a       	sbi	0x0b, 3	; 11
 682:	e3 e2       	ldi	r30, 0x23	; 35
 684:	f4 ef       	ldi	r31, 0xF4	; 244
 686:	31 97       	sbiw	r30, 0x01	; 1
 688:	f1 f7       	brne	.-4      	; 0x686 <lock+0xe>
 68a:	00 c0       	rjmp	.+0      	; 0x68c <lock+0x14>
 68c:	00 00       	nop
	
	_delay_ms(BUFFER);				// motor propagation delay
	
	while(status != 1){				// while not open
 68e:	81 30       	cpi	r24, 0x01	; 1
 690:	91 05       	cpc	r25, r1
 692:	31 f4       	brne	.+12     	; 0x6a0 <lock+0x28>
 694:	09 c0       	rjmp	.+18     	; 0x6a8 <lock+0x30>
	
		if((FDBKPORT & (1<<FDBKPIN))==0)	// check for button press
 696:	1e 99       	sbic	0x03, 6	; 3
 698:	fe cf       	rjmp	.-4      	; 0x696 <lock+0x1e>
			status = 1;						// lock is 1=locked
 69a:	81 e0       	ldi	r24, 0x01	; 1
 69c:	90 e0       	ldi	r25, 0x00	; 0
 69e:	04 c0       	rjmp	.+8      	; 0x6a8 <lock+0x30>
	
	_delay_ms(BUFFER);				// motor propagation delay
	
	while(status != 1){				// while not open
	
		if((FDBKPORT & (1<<FDBKPIN))==0)	// check for button press
 6a0:	1e 99       	sbic	0x03, 6	; 3
 6a2:	f9 cf       	rjmp	.-14     	; 0x696 <lock+0x1e>
			status = 1;						// lock is 1=locked
 6a4:	81 e0       	ldi	r24, 0x01	; 1
 6a6:	90 e0       	ldi	r25, 0x00	; 0
	}

	MOTORPORT &= ~PUSHOUT;		// RIN goes low, lock stops
 6a8:	5b 98       	cbi	0x0b, 3	; 11
	sei();						// re-enable interrupt
 6aa:	78 94       	sei
	return status;				// update lock state
}
 6ac:	08 95       	ret

000006ae <testLock>:



 int testLock(int status){
	 int lock_state = 1;
	 DDRD |= (1 << PD6);
 6ae:	56 9a       	sbi	0x0a, 6	; 10
	 PORTD |= (1 << PD6);
 6b0:	5e 9a       	sbi	0x0b, 6	; 11
	 return lock_state;
 }
 6b2:	81 e0       	ldi	r24, 0x01	; 1
 6b4:	90 e0       	ldi	r25, 0x00	; 0
 6b6:	08 95       	ret

000006b8 <testUnlock>:

 int testUnlock(int status){
	 int lock_state = 0;
	 DDRD |= (1 << PD6);
 6b8:	56 9a       	sbi	0x0a, 6	; 10
	 PORTD &= ~(1 << PD6);
 6ba:	5e 98       	cbi	0x0b, 6	; 11
	 return lock_state;
 }
 6bc:	80 e0       	ldi	r24, 0x00	; 0
 6be:	90 e0       	ldi	r25, 0x00	; 0
 6c0:	08 95       	ret

000006c2 <testfun>:

 void testfun(int on_off){
	 DDRD |= (1 << PD7);
 6c2:	57 9a       	sbi	0x0a, 7	; 10
	 if (on_off == 1)
 6c4:	81 30       	cpi	r24, 0x01	; 1
 6c6:	91 05       	cpc	r25, r1
 6c8:	11 f4       	brne	.+4      	; 0x6ce <testfun+0xc>
	 PORTD |= (1 << PD7);
 6ca:	5f 9a       	sbi	0x0b, 7	; 11
 6cc:	08 95       	ret
	 else
	 PORTD &= ~(1 << PD7);
 6ce:	5f 98       	cbi	0x0b, 7	; 11
 6d0:	08 95       	ret

000006d2 <__vector_11>:

#include "timeout.h"
#define TIMEOUT 0x1000						// approx 4096 ms

ISR(TIMER1_COMPA_vect){
 6d2:	1f 92       	push	r1
 6d4:	0f 92       	push	r0
 6d6:	0f b6       	in	r0, 0x3f	; 63
 6d8:	0f 92       	push	r0
 6da:	11 24       	eor	r1, r1
 6dc:	2f 93       	push	r18
 6de:	3f 93       	push	r19
 6e0:	4f 93       	push	r20
 6e2:	5f 93       	push	r21
 6e4:	6f 93       	push	r22
 6e6:	7f 93       	push	r23
 6e8:	8f 93       	push	r24
 6ea:	9f 93       	push	r25
 6ec:	af 93       	push	r26
 6ee:	bf 93       	push	r27
 6f0:	ef 93       	push	r30
 6f2:	ff 93       	push	r31
 6f4:	89 ef       	ldi	r24, 0xF9	; 249
 6f6:	90 e0       	ldi	r25, 0x00	; 0
 6f8:	01 97       	sbiw	r24, 0x01	; 1
 6fa:	f1 f7       	brne	.-4      	; 0x6f8 <__vector_11+0x26>
 6fc:	00 c0       	rjmp	.+0      	; 0x6fe <__vector_11+0x2c>
 6fe:	00 00       	nop
	_delay_ms(1);
	if (lock_state != 1) {
 700:	80 91 0e 01 	lds	r24, 0x010E
 704:	90 91 0f 01 	lds	r25, 0x010F
 708:	81 30       	cpi	r24, 0x01	; 1
 70a:	91 05       	cpc	r25, r1
 70c:	41 f0       	breq	.+16     	; 0x71e <__vector_11+0x4c>
		resetTimer();
 70e:	ae dc       	rcall	.-1700   	; 0x6c <resetTimer>
 710:	89 ef       	ldi	r24, 0xF9	; 249
 712:	90 e0       	ldi	r25, 0x00	; 0
 714:	01 97       	sbiw	r24, 0x01	; 1
 716:	f1 f7       	brne	.-4      	; 0x714 <__vector_11+0x42>
 718:	00 c0       	rjmp	.+0      	; 0x71a <__vector_11+0x48>
 71a:	00 00       	nop
 71c:	0c c0       	rjmp	.+24     	; 0x736 <__vector_11+0x64>
		_delay_ms(1);
	}
	else if((lock_state == 1)&&(key_queue[0])){
 71e:	80 91 88 01 	lds	r24, 0x0188
 722:	90 91 89 01 	lds	r25, 0x0189
 726:	00 97       	sbiw	r24, 0x00	; 0
 728:	31 f0       	breq	.+12     	; 0x736 <__vector_11+0x64>
		BacklightLCD(0);
 72a:	80 e0       	ldi	r24, 0x00	; 0
 72c:	90 e0       	ldi	r25, 0x00	; 0
 72e:	57 dd       	rcall	.-1362   	; 0x1de <BacklightLCD>
		pushKey('#');
 730:	83 e2       	ldi	r24, 0x23	; 35
 732:	90 e0       	ldi	r25, 0x00	; 0
 734:	dc de       	rcall	.-584    	; 0x4ee <pushKey>

	}
}
 736:	ff 91       	pop	r31
 738:	ef 91       	pop	r30
 73a:	bf 91       	pop	r27
 73c:	af 91       	pop	r26
 73e:	9f 91       	pop	r25
 740:	8f 91       	pop	r24
 742:	7f 91       	pop	r23
 744:	6f 91       	pop	r22
 746:	5f 91       	pop	r21
 748:	4f 91       	pop	r20
 74a:	3f 91       	pop	r19
 74c:	2f 91       	pop	r18
 74e:	0f 90       	pop	r0
 750:	0f be       	out	0x3f, r0	; 63
 752:	0f 90       	pop	r0
 754:	1f 90       	pop	r1
 756:	18 95       	reti

00000758 <initializeTimeout>:

void initializeTimeout(void){
	TIMSK1 |= (1 << OCIE1A);				// enable output compare A match interrupt
 758:	ef e6       	ldi	r30, 0x6F	; 111
 75a:	f0 e0       	ldi	r31, 0x00	; 0
 75c:	80 81       	ld	r24, Z
 75e:	82 60       	ori	r24, 0x02	; 2
 760:	80 83       	st	Z, r24
	TCCR1B |= (1 << CS12)|(1 << CS10);		// configure timer/counter clock prescaling
 762:	e1 e8       	ldi	r30, 0x81	; 129
 764:	f0 e0       	ldi	r31, 0x00	; 0
 766:	80 81       	ld	r24, Z
 768:	85 60       	ori	r24, 0x05	; 5
 76a:	80 83       	st	Z, r24
	OCR1A = TIMEOUT;
 76c:	80 e0       	ldi	r24, 0x00	; 0
 76e:	90 e1       	ldi	r25, 0x10	; 16
 770:	90 93 89 00 	sts	0x0089, r25
 774:	80 93 88 00 	sts	0x0088, r24
	resetTimer();
 778:	79 dc       	rcall	.-1806   	; 0x6c <resetTimer>
}
 77a:	08 95       	ret

0000077c <main>:
	int count = 0;											// counter variable used for loops
	
	 #include "timeout.c"
	 #include "timeout.h"

 int main(void) {
 77c:	cf 93       	push	r28
 77e:	df 93       	push	r29
 780:	cd b7       	in	r28, 0x3d	; 61
 782:	de b7       	in	r29, 0x3e	; 62
 784:	62 97       	sbiw	r28, 0x12	; 18
 786:	0f b6       	in	r0, 0x3f	; 63
 788:	f8 94       	cli
 78a:	de bf       	out	0x3e, r29	; 62
 78c:	0f be       	out	0x3f, r0	; 63
 78e:	cd bf       	out	0x3d, r28	; 61
	 // initialize
	// short int testcode[9] = {'3','2','1','\0','\0','\0','\0','\0','\0'};
	int rows[] = {ROW1, ROW2, ROW3, ROW4};
 790:	de 01       	movw	r26, r28
 792:	11 96       	adiw	r26, 0x01	; 1
 794:	e0 e0       	ldi	r30, 0x00	; 0
 796:	f1 e0       	ldi	r31, 0x01	; 1
 798:	88 e0       	ldi	r24, 0x08	; 8
 79a:	01 90       	ld	r0, Z+
 79c:	0d 92       	st	X+, r0
 79e:	81 50       	subi	r24, 0x01	; 1
 7a0:	e1 f7       	brne	.-8      	; 0x79a <main+0x1e>
	int cols[] = {COL1, COL2, COL3};
 7a2:	de 01       	movw	r26, r28
 7a4:	19 96       	adiw	r26, 0x09	; 9
 7a6:	e8 e0       	ldi	r30, 0x08	; 8
 7a8:	f1 e0       	ldi	r31, 0x01	; 1
 7aa:	86 e0       	ldi	r24, 0x06	; 6
 7ac:	01 90       	ld	r0, Z+
 7ae:	0d 92       	st	X+, r0
 7b0:	81 50       	subi	r24, 0x01	; 1
 7b2:	e1 f7       	brne	.-8      	; 0x7ac <main+0x30>
	volatile int count_queue;							// Keep track of how many characters are
														// in the queue
	int code_is_correct;								 
			
	
	initializeKeypadInterrupts(rows);	
 7b4:	ce 01       	movw	r24, r28
 7b6:	01 96       	adiw	r24, 0x01	; 1
 7b8:	89 dd       	rcall	.-1262   	; 0x2cc <initializeKeypadInterrupts>
	sei();												// global interrupt enable
 7ba:	78 94       	sei
	
	initRows(rows);										// set keypad rows as inputs
 7bc:	ce 01       	movw	r24, r28
 7be:	01 96       	adiw	r24, 0x01	; 1
 7c0:	c4 de       	rcall	.-632    	; 0x54a <initRows>
	initColumns(cols);									// set keypad columns as outputs
 7c2:	ce 01       	movw	r24, r28
 7c4:	09 96       	adiw	r24, 0x09	; 9
 7c6:	d7 de       	rcall	.-594    	; 0x576 <initColumns>
	initializeLCD();									// set up LCD and initialize in 4 bit mode
 7c8:	db dc       	rcall	.-1610   	; 0x180 <initializeLCD>
	BacklightLCD(1);
 7ca:	81 e0       	ldi	r24, 0x01	; 1
 7cc:	90 e0       	ldi	r25, 0x00	; 0
 7ce:	07 dd       	rcall	.-1522   	; 0x1de <BacklightLCD>
	clearKeyQueue();
 7d0:	ac de       	rcall	.-680    	; 0x52a <clearKeyQueue>

	testfun(0);
 7d2:	80 e0       	ldi	r24, 0x00	; 0
 7d4:	90 e0       	ldi	r25, 0x00	; 0
 7d6:	75 df       	rcall	.-278    	; 0x6c2 <testfun>

	
	// Ensure we're locked to start with.
	while (lock_state != 1) {
 7d8:	07 c0       	rjmp	.+14     	; 0x7e8 <main+0x6c>
			lock_state = testLock(2);
 7da:	82 e0       	ldi	r24, 0x02	; 2
 7dc:	90 e0       	ldi	r25, 0x00	; 0
 7de:	67 df       	rcall	.-306    	; 0x6ae <testLock>
 7e0:	90 93 0f 01 	sts	0x010F, r25
 7e4:	80 93 0e 01 	sts	0x010E, r24

	testfun(0);

	
	// Ensure we're locked to start with.
	while (lock_state != 1) {
 7e8:	80 91 0e 01 	lds	r24, 0x010E
 7ec:	90 91 0f 01 	lds	r25, 0x010F
 7f0:	81 30       	cpi	r24, 0x01	; 1
 7f2:	91 05       	cpc	r25, r1
 7f4:	91 f7       	brne	.-28     	; 0x7da <main+0x5e>
			lock_state = testLock(2);
	}
	initializeTimeout();
 7f6:	b0 df       	rcall	.-160    	; 0x758 <initializeTimeout>
		
		// Print greeting
		clearLCD();
		writeLCDline(enter_code,1);
		cursorPosition(2);
		readFROMeeprom(current_code);
 7f8:	0f 2e       	mov	r0, r31
 7fa:	fc e9       	ldi	r31, 0x9C	; 156
 7fc:	4f 2e       	mov	r4, r31
 7fe:	f1 e0       	ldi	r31, 0x01	; 1
 800:	5f 2e       	mov	r5, r31
 802:	f0 2d       	mov	r31, r0
			
			

					
			// Wait for a key press
			while(key_queue[count_queue] == '\0');
 804:	0f 2e       	mov	r0, r31
 806:	f8 e8       	ldi	r31, 0x88	; 136
 808:	ef 2e       	mov	r14, r31
 80a:	f1 e0       	ldi	r31, 0x01	; 1
 80c:	ff 2e       	mov	r15, r31
 80e:	f0 2d       	mov	r31, r0
	int count = 0;											// counter variable used for loops
	
	 #include "timeout.c"
	 #include "timeout.h"

 int main(void) {
 810:	0f 2e       	mov	r0, r31
 812:	f2 e1       	ldi	r31, 0x12	; 18
 814:	af 2e       	mov	r10, r31
 816:	bb 24       	eor	r11, r11
 818:	f0 2d       	mov	r31, r0
 81a:	a4 0c       	add	r10, r4
 81c:	b5 1c       	adc	r11, r5
			
			

					
			// Wait for a key press
			while(key_queue[count_queue] == '\0');
 81e:	e9 8a       	std	Y+17, r14	; 0x11
 820:	fa 8a       	std	Y+18, r15	; 0x12
						code_is_correct = 0;
					++count;				
				}
				if(!code_is_correct && count > 0){
					clearLCD();
					writeLCDline(incorrect_code,1);
 822:	0f 2e       	mov	r0, r31
 824:	f0 e5       	ldi	r31, 0x50	; 80
 826:	2f 2e       	mov	r2, r31
 828:	f1 e0       	ldi	r31, 0x01	; 1
 82a:	3f 2e       	mov	r3, r31
 82c:	f0 2d       	mov	r31, r0
	while(1) {
		
		
		
		// Print greeting
		clearLCD();
 82e:	9f dc       	rcall	.-1730   	; 0x16e <clearLCD>
		writeLCDline(enter_code,1);
 830:	80 e6       	ldi	r24, 0x60	; 96
 832:	91 e0       	ldi	r25, 0x01	; 1
 834:	61 e0       	ldi	r22, 0x01	; 1
 836:	70 e0       	ldi	r23, 0x00	; 0
 838:	80 dc       	rcall	.-1792   	; 0x13a <writeLCDline>
		cursorPosition(2);
 83a:	82 e0       	ldi	r24, 0x02	; 2
 83c:	90 e0       	ldi	r25, 0x00	; 0
 83e:	54 dc       	rcall	.-1880   	; 0xe8 <cursorPosition>
		readFROMeeprom(current_code);
 840:	c2 01       	movw	r24, r4
 842:	fa dc       	rcall	.-1548   	; 0x238 <readFROMeeprom>
				
			// ...or if first key in the queue isn't a digit or '#' then
			// it must be the '*'
			} 
			else if(key_queue[0] == '*') {
				count = 0;
 844:	88 24       	eor	r8, r8
 846:	99 24       	eor	r9, r9
					writeLCDline(incorrect_code,1);
					_delay_ms(5000);
					clearKeyQueue();
					count_queue = 0;
					clearLCD();
					writeLCDline(enter_code,1);
 848:	0f 2e       	mov	r0, r31
 84a:	f0 e6       	ldi	r31, 0x60	; 96
 84c:	6f 2e       	mov	r6, r31
 84e:	f1 e0       	ldi	r31, 0x01	; 1
 850:	7f 2e       	mov	r7, r31
 852:	f0 2d       	mov	r31, r0
									
					
				// Checks the current queue code with the correct code
				while(key_queue[count] != '\0'){
					if(key_queue[count] != current_code[count])
						code_is_correct = 0;
 854:	d8 2c       	mov	r13, r8
 856:	c9 2c       	mov	r12, r9
		readFROMeeprom(current_code);
		
		
		
		// While box is in locked state
		while (lock_state == 1) {
 858:	d0 c0       	rjmp	.+416    	; 0x9fa <main+0x27e>
			
			

					
			// Wait for a key press
			while(key_queue[count_queue] == '\0');
 85a:	8f 85       	ldd	r24, Y+15	; 0x0f
 85c:	98 89       	ldd	r25, Y+16	; 0x10
 85e:	88 0f       	add	r24, r24
 860:	99 1f       	adc	r25, r25
 862:	8e 0d       	add	r24, r14
 864:	9f 1d       	adc	r25, r15
 866:	dc 01       	movw	r26, r24
 868:	8d 91       	ld	r24, X+
 86a:	9c 91       	ld	r25, X
 86c:	11 97       	sbiw	r26, 0x01	; 1
 86e:	00 97       	sbiw	r24, 0x00	; 0
 870:	a1 f3       	breq	.-24     	; 0x85a <main+0xde>
			
			// Now that we have a key press we need to look at what was pressed.
			// Is the first key in the queue a '#'...
			if(key_queue[0] == '#'){
 872:	f7 01       	movw	r30, r14
 874:	80 81       	ld	r24, Z
 876:	91 81       	ldd	r25, Z+1	; 0x01
 878:	83 32       	cpi	r24, 0x23	; 35
 87a:	91 05       	cpc	r25, r1
 87c:	61 f4       	brne	.+24     	; 0x896 <main+0x11a>
				clearLCD();
 87e:	77 dc       	rcall	.-1810   	; 0x16e <clearLCD>
				writeLCDline(enter_code,1);
 880:	c3 01       	movw	r24, r6
 882:	61 e0       	ldi	r22, 0x01	; 1
 884:	70 e0       	ldi	r23, 0x00	; 0
 886:	59 dc       	rcall	.-1870   	; 0x13a <writeLCDline>
				cursorPosition(2);
 888:	82 e0       	ldi	r24, 0x02	; 2
 88a:	90 e0       	ldi	r25, 0x00	; 0
 88c:	2d dc       	rcall	.-1958   	; 0xe8 <cursorPosition>
				clearKeyQueue();
 88e:	4d de       	rcall	.-870    	; 0x52a <clearKeyQueue>
				count_queue = 0;
 890:	98 8a       	std	Y+16, r9	; 0x10
 892:	8f 86       	std	Y+15, r8	; 0x0f
 894:	b2 c0       	rjmp	.+356    	; 0x9fa <main+0x27e>
				//testfun(1);
				
			// ...or is the first key in the queue a digit?...
			} 
			else if((key_queue[0] >= '0') && (key_queue[0] <= '9') && (count_queue < 8)){
 896:	80 81       	ld	r24, Z
 898:	91 81       	ldd	r25, Z+1	; 0x01
 89a:	80 33       	cpi	r24, 0x30	; 48
 89c:	91 05       	cpc	r25, r1
 89e:	9c f0       	brlt	.+38     	; 0x8c6 <main+0x14a>
 8a0:	80 81       	ld	r24, Z
 8a2:	91 81       	ldd	r25, Z+1	; 0x01
 8a4:	8a 33       	cpi	r24, 0x3A	; 58
 8a6:	91 05       	cpc	r25, r1
 8a8:	74 f4       	brge	.+28     	; 0x8c6 <main+0x14a>
 8aa:	8f 85       	ldd	r24, Y+15	; 0x0f
 8ac:	98 89       	ldd	r25, Y+16	; 0x10
 8ae:	88 30       	cpi	r24, 0x08	; 8
 8b0:	91 05       	cpc	r25, r1
 8b2:	4c f4       	brge	.+18     	; 0x8c6 <main+0x14a>
				writeLCDcharacter(key_queue[0]);
 8b4:	80 81       	ld	r24, Z
 8b6:	91 81       	ldd	r25, Z+1	; 0x01
 8b8:	39 dc       	rcall	.-1934   	; 0x12c <writeLCDcharacter>
				count_queue++;	
 8ba:	8f 85       	ldd	r24, Y+15	; 0x0f
 8bc:	98 89       	ldd	r25, Y+16	; 0x10
 8be:	01 96       	adiw	r24, 0x01	; 1
 8c0:	98 8b       	std	Y+16, r25	; 0x10
 8c2:	8f 87       	std	Y+15, r24	; 0x0f
 8c4:	9a c0       	rjmp	.+308    	; 0x9fa <main+0x27e>
				
			// ...or if first key in the queue isn't a digit or '#' then
			// it must be the '*'
			} 
			else if(key_queue[0] == '*') {
 8c6:	f7 01       	movw	r30, r14
 8c8:	80 81       	ld	r24, Z
 8ca:	91 81       	ldd	r25, Z+1	; 0x01
 8cc:	8a 32       	cpi	r24, 0x2A	; 42
 8ce:	91 05       	cpc	r25, r1
 8d0:	09 f0       	breq	.+2      	; 0x8d4 <main+0x158>
 8d2:	93 c0       	rjmp	.+294    	; 0x9fa <main+0x27e>
				count = 0;
 8d4:	90 92 83 01 	sts	0x0183, r9
 8d8:	80 92 82 01 	sts	0x0182, r8
				code_is_correct = 1;
				popKey();
 8dc:	e3 dd       	rcall	.-1082   	; 0x4a4 <popKey>
				
				clearLCD();
 8de:	47 dc       	rcall	.-1906   	; 0x16e <clearLCD>
				cursorPosition(1);
 8e0:	81 e0       	ldi	r24, 0x01	; 1
 8e2:	90 e0       	ldi	r25, 0x00	; 0
 8e4:	01 dc       	rcall	.-2046   	; 0xe8 <cursorPosition>
				for(int i = 0; i < 10; i++){
 8e6:	84 01       	movw	r16, r8
					writeLCDcharacter(key_queue[i]);
 8e8:	c8 01       	movw	r24, r16
 8ea:	88 0f       	add	r24, r24
 8ec:	99 1f       	adc	r25, r25
 8ee:	8e 0d       	add	r24, r14
 8f0:	9f 1d       	adc	r25, r15
 8f2:	dc 01       	movw	r26, r24
 8f4:	8d 91       	ld	r24, X+
 8f6:	9c 91       	ld	r25, X
 8f8:	19 dc       	rcall	.-1998   	; 0x12c <writeLCDcharacter>
				code_is_correct = 1;
				popKey();
				
				clearLCD();
				cursorPosition(1);
				for(int i = 0; i < 10; i++){
 8fa:	0f 5f       	subi	r16, 0xFF	; 255
 8fc:	1f 4f       	sbci	r17, 0xFF	; 255
 8fe:	0a 30       	cpi	r16, 0x0A	; 10
 900:	11 05       	cpc	r17, r1
 902:	91 f7       	brne	.-28     	; 0x8e8 <main+0x16c>
					writeLCDcharacter(key_queue[i]);
				}
				cursorPosition(2);
 904:	82 e0       	ldi	r24, 0x02	; 2
 906:	90 e0       	ldi	r25, 0x00	; 0
 908:	ef db       	rcall	.-2082   	; 0xe8 <cursorPosition>
 90a:	82 01       	movw	r16, r4
				for(int i = 0; i < 9; i++){
					writeLCDcharacter(current_code[i]);
 90c:	f8 01       	movw	r30, r16
 90e:	81 91       	ld	r24, Z+
 910:	91 91       	ld	r25, Z+
 912:	8f 01       	movw	r16, r30
 914:	0b dc       	rcall	.-2026   	; 0x12c <writeLCDcharacter>
				cursorPosition(1);
				for(int i = 0; i < 10; i++){
					writeLCDcharacter(key_queue[i]);
				}
				cursorPosition(2);
				for(int i = 0; i < 9; i++){
 916:	0a 15       	cp	r16, r10
 918:	1b 05       	cpc	r17, r11
 91a:	c1 f7       	brne	.-16     	; 0x90c <main+0x190>
 91c:	8f e3       	ldi	r24, 0x3F	; 63
 91e:	9d e0       	ldi	r25, 0x0D	; 13
 920:	a3 e0       	ldi	r26, 0x03	; 3
 922:	81 50       	subi	r24, 0x01	; 1
 924:	90 40       	sbci	r25, 0x00	; 0
 926:	a0 40       	sbci	r26, 0x00	; 0
 928:	e1 f7       	brne	.-8      	; 0x922 <main+0x1a6>
 92a:	00 c0       	rjmp	.+0      	; 0x92c <main+0x1b0>
 92c:	00 00       	nop
				}
				_delay_ms(1000);
									
					
				// Checks the current queue code with the correct code
				while(key_queue[count] != '\0'){
 92e:	40 91 82 01 	lds	r20, 0x0182
 932:	50 91 83 01 	lds	r21, 0x0183
 936:	ca 01       	movw	r24, r20
 938:	88 0f       	add	r24, r24
 93a:	99 1f       	adc	r25, r25
 93c:	8e 0d       	add	r24, r14
 93e:	9f 1d       	adc	r25, r15
 940:	dc 01       	movw	r26, r24
 942:	8d 91       	ld	r24, X+
 944:	9c 91       	ld	r25, X
 946:	11 97       	sbiw	r26, 0x01	; 1
 948:	00 97       	sbiw	r24, 0x00	; 0
 94a:	09 f4       	brne	.+2      	; 0x94e <main+0x1d2>
 94c:	4a c0       	rjmp	.+148    	; 0x9e2 <main+0x266>
	int count = 0;											// counter variable used for loops
	
	 #include "timeout.c"
	 #include "timeout.h"

 int main(void) {
 94e:	ca 01       	movw	r24, r20
 950:	88 0f       	add	r24, r24
 952:	99 1f       	adc	r25, r25
 954:	fc 01       	movw	r30, r24
 956:	e4 56       	subi	r30, 0x64	; 100
 958:	fe 4f       	sbci	r31, 0xFE	; 254
			// ...or if first key in the queue isn't a digit or '#' then
			// it must be the '*'
			} 
			else if(key_queue[0] == '*') {
				count = 0;
				code_is_correct = 1;
 95a:	61 e0       	ldi	r22, 0x01	; 1
 95c:	70 e0       	ldi	r23, 0x00	; 0
				_delay_ms(1000);
									
					
				// Checks the current queue code with the correct code
				while(key_queue[count] != '\0'){
					if(key_queue[count] != current_code[count])
 95e:	ca 01       	movw	r24, r20
 960:	88 0f       	add	r24, r24
 962:	99 1f       	adc	r25, r25
 964:	8e 0d       	add	r24, r14
 966:	9f 1d       	adc	r25, r15
 968:	dc 01       	movw	r26, r24
 96a:	8d 91       	ld	r24, X+
 96c:	9c 91       	ld	r25, X
 96e:	11 97       	sbiw	r26, 0x01	; 1
 970:	21 91       	ld	r18, Z+
 972:	31 91       	ld	r19, Z+
 974:	82 17       	cp	r24, r18
 976:	93 07       	cpc	r25, r19
 978:	11 f0       	breq	.+4      	; 0x97e <main+0x202>
						code_is_correct = 0;
 97a:	6d 2d       	mov	r22, r13
 97c:	7c 2d       	mov	r23, r12
					++count;				
 97e:	4f 5f       	subi	r20, 0xFF	; 255
 980:	5f 4f       	sbci	r21, 0xFF	; 255
				}
				_delay_ms(1000);
									
					
				// Checks the current queue code with the correct code
				while(key_queue[count] != '\0'){
 982:	ca 01       	movw	r24, r20
 984:	88 0f       	add	r24, r24
 986:	99 1f       	adc	r25, r25
 988:	8e 0d       	add	r24, r14
 98a:	9f 1d       	adc	r25, r15
 98c:	dc 01       	movw	r26, r24
 98e:	8d 91       	ld	r24, X+
 990:	9c 91       	ld	r25, X
 992:	11 97       	sbiw	r26, 0x01	; 1
 994:	00 97       	sbiw	r24, 0x00	; 0
 996:	19 f7       	brne	.-58     	; 0x95e <main+0x1e2>
					if(key_queue[count] != current_code[count])
						code_is_correct = 0;
					++count;				
 998:	ca 01       	movw	r24, r20
				}
				_delay_ms(1000);
									
					
				// Checks the current queue code with the correct code
				while(key_queue[count] != '\0'){
 99a:	40 93 82 01 	sts	0x0182, r20
 99e:	50 93 83 01 	sts	0x0183, r21
					if(key_queue[count] != current_code[count])
						code_is_correct = 0;
					++count;				
				}
				if(!code_is_correct && count > 0){
 9a2:	61 15       	cp	r22, r1
 9a4:	71 05       	cpc	r23, r1
 9a6:	e9 f4       	brne	.+58     	; 0x9e2 <main+0x266>
 9a8:	18 16       	cp	r1, r24
 9aa:	19 06       	cpc	r1, r25
 9ac:	34 f5       	brge	.+76     	; 0x9fa <main+0x27e>
					clearLCD();
 9ae:	df db       	rcall	.-2114   	; 0x16e <clearLCD>
					writeLCDline(incorrect_code,1);
 9b0:	c1 01       	movw	r24, r2
 9b2:	61 e0       	ldi	r22, 0x01	; 1
 9b4:	70 e0       	ldi	r23, 0x00	; 0
 9b6:	c1 db       	rcall	.-2174   	; 0x13a <writeLCDline>
 9b8:	8f e3       	ldi	r24, 0x3F	; 63
 9ba:	92 e4       	ldi	r25, 0x42	; 66
 9bc:	af e0       	ldi	r26, 0x0F	; 15
 9be:	81 50       	subi	r24, 0x01	; 1
 9c0:	90 40       	sbci	r25, 0x00	; 0
 9c2:	a0 40       	sbci	r26, 0x00	; 0
 9c4:	e1 f7       	brne	.-8      	; 0x9be <main+0x242>
 9c6:	00 c0       	rjmp	.+0      	; 0x9c8 <main+0x24c>
 9c8:	00 00       	nop
					_delay_ms(5000);
					clearKeyQueue();
 9ca:	af dd       	rcall	.-1186   	; 0x52a <clearKeyQueue>
					count_queue = 0;
 9cc:	98 8a       	std	Y+16, r9	; 0x10
 9ce:	8f 86       	std	Y+15, r8	; 0x0f
					clearLCD();
 9d0:	ce db       	rcall	.-2148   	; 0x16e <clearLCD>
					writeLCDline(enter_code,1);
 9d2:	c3 01       	movw	r24, r6
 9d4:	61 e0       	ldi	r22, 0x01	; 1
 9d6:	70 e0       	ldi	r23, 0x00	; 0
 9d8:	b0 db       	rcall	.-2208   	; 0x13a <writeLCDline>
					cursorPosition(2);
 9da:	82 e0       	ldi	r24, 0x02	; 2
 9dc:	90 e0       	ldi	r25, 0x00	; 0
 9de:	84 db       	rcall	.-2296   	; 0xe8 <cursorPosition>
 9e0:	0c c0       	rjmp	.+24     	; 0x9fa <main+0x27e>
				}else if(code_is_correct && count > 0){
 9e2:	14 16       	cp	r1, r20
 9e4:	15 06       	cpc	r1, r21
 9e6:	4c f4       	brge	.+18     	; 0x9fa <main+0x27e>

					// Unlock the box
					lock_state = testUnlock(lock_state);
 9e8:	80 91 0e 01 	lds	r24, 0x010E
 9ec:	90 91 0f 01 	lds	r25, 0x010F
 9f0:	63 de       	rcall	.-826    	; 0x6b8 <testUnlock>
 9f2:	90 93 0f 01 	sts	0x010F, r25
 9f6:	80 93 0e 01 	sts	0x010E, r24
		readFROMeeprom(current_code);
		
		
		
		// While box is in locked state
		while (lock_state == 1) {
 9fa:	80 91 0e 01 	lds	r24, 0x010E
 9fe:	90 91 0f 01 	lds	r25, 0x010F
 a02:	81 30       	cpi	r24, 0x01	; 1
 a04:	91 05       	cpc	r25, r1
 a06:	09 f4       	brne	.+2      	; 0xa0a <main+0x28e>
 a08:	28 cf       	rjmp	.-432    	; 0x85a <main+0xde>
 a0a:	98 c0       	rjmp	.+304    	; 0xb3c <main+0x3c0>

		// While box is in unlocked state
			while (lock_state == 0 ) {

				// Write unlocked menu
				clearLCD();
 a0c:	b0 db       	rcall	.-2208   	; 0x16e <clearLCD>
				writeLCDline(unlocked_menu_1, 1);
 a0e:	80 e4       	ldi	r24, 0x40	; 64
 a10:	91 e0       	ldi	r25, 0x01	; 1
 a12:	61 e0       	ldi	r22, 0x01	; 1
 a14:	70 e0       	ldi	r23, 0x00	; 0
 a16:	91 db       	rcall	.-2270   	; 0x13a <writeLCDline>
				writeLCDline(unlocked_menu_2, 2);
 a18:	80 e3       	ldi	r24, 0x30	; 48
 a1a:	91 e0       	ldi	r25, 0x01	; 1
 a1c:	62 e0       	ldi	r22, 0x02	; 2
 a1e:	70 e0       	ldi	r23, 0x00	; 0
 a20:	8c db       	rcall	.-2280   	; 0x13a <writeLCDline>

				clearKeyQueue();
 a22:	83 dd       	rcall	.-1274   	; 0x52a <clearKeyQueue>
				count_queue = 0;
 a24:	18 8a       	std	Y+16, r1	; 0x10
 a26:	1f 86       	std	Y+15, r1	; 0x0f

				// Wait for key press
				while(key_queue[count_queue] == '\0');
 a28:	8f 85       	ldd	r24, Y+15	; 0x0f
 a2a:	98 89       	ldd	r25, Y+16	; 0x10
 a2c:	88 0f       	add	r24, r24
 a2e:	99 1f       	adc	r25, r25
 a30:	8e 0d       	add	r24, r14
 a32:	9f 1d       	adc	r25, r15
 a34:	dc 01       	movw	r26, r24
 a36:	8d 91       	ld	r24, X+
 a38:	9c 91       	ld	r25, X
 a3a:	11 97       	sbiw	r26, 0x01	; 1
 a3c:	00 97       	sbiw	r24, 0x00	; 0
 a3e:	a1 f3       	breq	.-24     	; 0xa28 <main+0x2ac>

				// Now that we have a key press we need to look at what was pressed.
				// Is the first key in the queue a '#'...
				if(key_queue[0] == '#'){
 a40:	f7 01       	movw	r30, r14
 a42:	80 81       	ld	r24, Z
 a44:	91 81       	ldd	r25, Z+1	; 0x01
 a46:	83 32       	cpi	r24, 0x23	; 35
 a48:	91 05       	cpc	r25, r1
 a4a:	a1 f4       	brne	.+40     	; 0xa74 <main+0x2f8>
					lock_state = testLock(lock_state);
 a4c:	80 91 0e 01 	lds	r24, 0x010E
 a50:	90 91 0f 01 	lds	r25, 0x010F
 a54:	2c de       	rcall	.-936    	; 0x6ae <testLock>
 a56:	90 93 0f 01 	sts	0x010F, r25
 a5a:	80 93 0e 01 	sts	0x010E, r24
					clearKeyQueue();
 a5e:	65 dd       	rcall	.-1334   	; 0x52a <clearKeyQueue>
					count_queue = 0;
 a60:	18 8a       	std	Y+16, r1	; 0x10
 a62:	1f 86       	std	Y+15, r1	; 0x0f
					writeLCDline(enter_code,1);
 a64:	c4 01       	movw	r24, r8
 a66:	61 e0       	ldi	r22, 0x01	; 1
 a68:	70 e0       	ldi	r23, 0x00	; 0
 a6a:	67 db       	rcall	.-2354   	; 0x13a <writeLCDline>
					cursorPosition(2);
 a6c:	82 e0       	ldi	r24, 0x02	; 2
 a6e:	90 e0       	ldi	r25, 0x00	; 0
 a70:	3b db       	rcall	.-2442   	; 0xe8 <cursorPosition>
 a72:	72 c0       	rjmp	.+228    	; 0xb58 <main+0x3dc>

				// ...or is the first key in the queue a '*'?
				} else if(key_queue[0] == '*'){
 a74:	80 81       	ld	r24, Z
 a76:	91 81       	ldd	r25, Z+1	; 0x01
 a78:	8a 32       	cpi	r24, 0x2A	; 42
 a7a:	91 05       	cpc	r25, r1
 a7c:	09 f0       	breq	.+2      	; 0xa80 <main+0x304>
 a7e:	6c c0       	rjmp	.+216    	; 0xb58 <main+0x3dc>
					
					clearLCD();
 a80:	76 db       	rcall	.-2324   	; 0x16e <clearLCD>
					clearKeyQueue();
 a82:	53 dd       	rcall	.-1370   	; 0x52a <clearKeyQueue>
					count_queue = 0;
 a84:	18 8a       	std	Y+16, r1	; 0x10
 a86:	1f 86       	std	Y+15, r1	; 0x0f
					writeLCDline(new_code_menu, 1);
 a88:	c8 01       	movw	r24, r16
 a8a:	61 e0       	ldi	r22, 0x01	; 1
 a8c:	70 e0       	ldi	r23, 0x00	; 0
 a8e:	55 db       	rcall	.-2390   	; 0x13a <writeLCDline>
					cursorPosition(2);
 a90:	82 e0       	ldi	r24, 0x02	; 2
 a92:	90 e0       	ldi	r25, 0x00	; 0
 a94:	29 db       	rcall	.-2478   	; 0xe8 <cursorPosition>

					// Now we start entering the new code. An '*' indicates that we're
					// done entering the code.
					while(key_queue[0] != '*') {
 a96:	49 c0       	rjmp	.+146    	; 0xb2a <main+0x3ae>
						
						// Wait for key press
						while(key_queue[count_queue] == '\0');
 a98:	8f 85       	ldd	r24, Y+15	; 0x0f
 a9a:	98 89       	ldd	r25, Y+16	; 0x10
 a9c:	88 0f       	add	r24, r24
 a9e:	99 1f       	adc	r25, r25
 aa0:	8e 0d       	add	r24, r14
 aa2:	9f 1d       	adc	r25, r15
 aa4:	fc 01       	movw	r30, r24
 aa6:	80 81       	ld	r24, Z
 aa8:	91 81       	ldd	r25, Z+1	; 0x01
 aaa:	00 97       	sbiw	r24, 0x00	; 0
 aac:	a9 f3       	breq	.-22     	; 0xa98 <main+0x31c>

						// Was the latest key pressed between 0 and 9, AND has the user
						// entered less than the max number (8) of digits allowed for the
						// code.
						if(key_queue[0] >= '0' && key_queue[0] <= '9' && count_queue < 9){
 aae:	d7 01       	movw	r26, r14
 ab0:	8d 91       	ld	r24, X+
 ab2:	9c 91       	ld	r25, X
 ab4:	11 97       	sbiw	r26, 0x01	; 1
 ab6:	80 33       	cpi	r24, 0x30	; 48
 ab8:	91 05       	cpc	r25, r1
 aba:	a4 f0       	brlt	.+40     	; 0xae4 <main+0x368>
 abc:	8d 91       	ld	r24, X+
 abe:	9c 91       	ld	r25, X
 ac0:	11 97       	sbiw	r26, 0x01	; 1
 ac2:	8a 33       	cpi	r24, 0x3A	; 58
 ac4:	91 05       	cpc	r25, r1
 ac6:	74 f4       	brge	.+28     	; 0xae4 <main+0x368>
 ac8:	8f 85       	ldd	r24, Y+15	; 0x0f
 aca:	98 89       	ldd	r25, Y+16	; 0x10
 acc:	89 30       	cpi	r24, 0x09	; 9
 ace:	91 05       	cpc	r25, r1
 ad0:	4c f4       	brge	.+18     	; 0xae4 <main+0x368>
							// QUESTION: DO WE NEED TO MANUALLY SHIFT THE QUEUE??
							writeLCDcharacter(key_queue[0]);
 ad2:	8d 91       	ld	r24, X+
 ad4:	9c 91       	ld	r25, X
 ad6:	2a db       	rcall	.-2476   	; 0x12c <writeLCDcharacter>
							++count_queue;
 ad8:	8f 85       	ldd	r24, Y+15	; 0x0f
 ada:	98 89       	ldd	r25, Y+16	; 0x10
 adc:	01 96       	adiw	r24, 0x01	; 1
 ade:	98 8b       	std	Y+16, r25	; 0x10
 ae0:	8f 87       	std	Y+15, r24	; 0x0f
 ae2:	23 c0       	rjmp	.+70     	; 0xb2a <main+0x3ae>
						
						// If the latest key pressed is '*' then lets write the new
						// code to eeprom
						} else if (key_queue[0] == '*') {
 ae4:	f7 01       	movw	r30, r14
 ae6:	80 81       	ld	r24, Z
 ae8:	91 81       	ldd	r25, Z+1	; 0x01
 aea:	8a 32       	cpi	r24, 0x2A	; 42
 aec:	91 05       	cpc	r25, r1
 aee:	29 f4       	brne	.+10     	; 0xafa <main+0x37e>
							popKey();
 af0:	d9 dc       	rcall	.-1614   	; 0x4a4 <popKey>
							writeTOeeprom(key_queue);
 af2:	89 89       	ldd	r24, Y+17	; 0x11
 af4:	9a 89       	ldd	r25, Y+18	; 0x12
 af6:	7b db       	rcall	.-2314   	; 0x1ee <writeTOeeprom>
							break;
 af8:	2f c0       	rjmp	.+94     	; 0xb58 <main+0x3dc>

						// Otherwise the only key left is '#', so that's what must've been
						// pressed. :)
						} else if(key_queue[0] == '#') {
 afa:	80 81       	ld	r24, Z
 afc:	91 81       	ldd	r25, Z+1	; 0x01
 afe:	83 32       	cpi	r24, 0x23	; 35
 b00:	91 05       	cpc	r25, r1
 b02:	99 f4       	brne	.+38     	; 0xb2a <main+0x3ae>
							clearLCD();
 b04:	34 db       	rcall	.-2456   	; 0x16e <clearLCD>
							writeLCDline(cancel_code_change,1);
 b06:	c6 01       	movw	r24, r12
 b08:	61 e0       	ldi	r22, 0x01	; 1
 b0a:	70 e0       	ldi	r23, 0x00	; 0
 b0c:	16 db       	rcall	.-2516   	; 0x13a <writeLCDline>
 b0e:	8f e3       	ldi	r24, 0x3F	; 63
 b10:	92 e4       	ldi	r25, 0x42	; 66
 b12:	af e0       	ldi	r26, 0x0F	; 15
 b14:	81 50       	subi	r24, 0x01	; 1
 b16:	90 40       	sbci	r25, 0x00	; 0
 b18:	a0 40       	sbci	r26, 0x00	; 0
 b1a:	e1 f7       	brne	.-8      	; 0xb14 <main+0x398>
 b1c:	00 c0       	rjmp	.+0      	; 0xb1e <main+0x3a2>
 b1e:	00 00       	nop
							_delay_ms(5000);
							clearKeyQueue();
 b20:	04 dd       	rcall	.-1528   	; 0x52a <clearKeyQueue>
							count_queue = 0;
 b22:	18 8a       	std	Y+16, r1	; 0x10
 b24:	1f 86       	std	Y+15, r1	; 0x0f
							clearLCD();
 b26:	23 db       	rcall	.-2490   	; 0x16e <clearLCD>
							break;
 b28:	17 c0       	rjmp	.+46     	; 0xb58 <main+0x3dc>
					writeLCDline(new_code_menu, 1);
					cursorPosition(2);

					// Now we start entering the new code. An '*' indicates that we're
					// done entering the code.
					while(key_queue[0] != '*') {
 b2a:	d7 01       	movw	r26, r14
 b2c:	8d 91       	ld	r24, X+
 b2e:	9c 91       	ld	r25, X
 b30:	11 97       	sbiw	r26, 0x01	; 1
 b32:	8a 32       	cpi	r24, 0x2A	; 42
 b34:	91 05       	cpc	r25, r1
 b36:	09 f0       	breq	.+2      	; 0xb3a <main+0x3be>
 b38:	af cf       	rjmp	.-162    	; 0xa98 <main+0x31c>
 b3a:	0e c0       	rjmp	.+28     	; 0xb58 <main+0x3dc>
				} else if(key_queue[0] == '*'){
					
					clearLCD();
					clearKeyQueue();
					count_queue = 0;
					writeLCDline(new_code_menu, 1);
 b3c:	00 e2       	ldi	r16, 0x20	; 32
 b3e:	11 e0       	ldi	r17, 0x01	; 1

						// Otherwise the only key left is '#', so that's what must've been
						// pressed. :)
						} else if(key_queue[0] == '#') {
							clearLCD();
							writeLCDline(cancel_code_change,1);
 b40:	0f 2e       	mov	r0, r31
 b42:	f0 e1       	ldi	r31, 0x10	; 16
 b44:	cf 2e       	mov	r12, r31
 b46:	f1 e0       	ldi	r31, 0x01	; 1
 b48:	df 2e       	mov	r13, r31
 b4a:	f0 2d       	mov	r31, r0
				// Is the first key in the queue a '#'...
				if(key_queue[0] == '#'){
					lock_state = testLock(lock_state);
					clearKeyQueue();
					count_queue = 0;
					writeLCDline(enter_code,1);
 b4c:	0f 2e       	mov	r0, r31
 b4e:	f0 e6       	ldi	r31, 0x60	; 96
 b50:	8f 2e       	mov	r8, r31
 b52:	f1 e0       	ldi	r31, 0x01	; 1
 b54:	9f 2e       	mov	r9, r31
 b56:	f0 2d       	mov	r31, r0
				}
			}					
		} // End while (lock_state == 1)

		// While box is in unlocked state
			while (lock_state == 0 ) {
 b58:	80 91 0e 01 	lds	r24, 0x010E
 b5c:	90 91 0f 01 	lds	r25, 0x010F
 b60:	00 97       	sbiw	r24, 0x00	; 0
 b62:	09 f0       	breq	.+2      	; 0xb66 <main+0x3ea>
 b64:	64 ce       	rjmp	.-824    	; 0x82e <main+0xb2>
 b66:	52 cf       	rjmp	.-348    	; 0xa0c <main+0x290>

00000b68 <__eerd_byte_m48a>:
 b68:	f9 99       	sbic	0x1f, 1	; 31
 b6a:	fe cf       	rjmp	.-4      	; 0xb68 <__eerd_byte_m48a>
 b6c:	12 bc       	out	0x22, r1	; 34
 b6e:	81 bd       	out	0x21, r24	; 33
 b70:	f8 9a       	sbi	0x1f, 0	; 31
 b72:	99 27       	eor	r25, r25
 b74:	80 b5       	in	r24, 0x20	; 32
 b76:	08 95       	ret

00000b78 <__eewr_byte_m48a>:
 b78:	26 2f       	mov	r18, r22

00000b7a <__eewr_r18_m48a>:
 b7a:	f9 99       	sbic	0x1f, 1	; 31
 b7c:	fe cf       	rjmp	.-4      	; 0xb7a <__eewr_r18_m48a>
 b7e:	1f ba       	out	0x1f, r1	; 31
 b80:	12 bc       	out	0x22, r1	; 34
 b82:	81 bd       	out	0x21, r24	; 33
 b84:	20 bd       	out	0x20, r18	; 32
 b86:	0f b6       	in	r0, 0x3f	; 63
 b88:	f8 94       	cli
 b8a:	fa 9a       	sbi	0x1f, 2	; 31
 b8c:	f9 9a       	sbi	0x1f, 1	; 31
 b8e:	0f be       	out	0x3f, r0	; 63
 b90:	01 96       	adiw	r24, 0x01	; 1
 b92:	08 95       	ret

00000b94 <_exit>:
 b94:	f8 94       	cli

00000b96 <__stop_program>:
 b96:	ff cf       	rjmp	.-2      	; 0xb96 <__stop_program>
